
build/program.elf:     file format elf32-littleriscv

Contents of section .text:
 0000 37080011 b7050c11 37060811 1307f0ff  7.......7.......
 0010 97000000 e780801c ef0f8023 97000000  ...........#....
 0020 e780c01b ef0f8048 97000000 e780001b  .......H........
 0030 ef0f006b 97000000 e780401a ef0f807d  ...k......@....}
 0040 97000000 e7808019 ef0f5010 97000000  ..........P.....
 0050 e780c018 ef0fd022 97000000 e7800018  ......."........
 0060 ef0f904c 97000000 e7804017 ef0fd072  ...L......@....r
 0070 97000000 e7808016 ef1f8022 97000000  ..........."....
 0080 e780c015 ef1f0048 97000000 e7800015  .......H........
 0090 ef1f806d 97000000 e7804014 ef1fd00f  ...m......@.....
 00a0 97000000 e7808013 ef1f501b 97000000  ..........P.....
 00b0 e780c012 ef1f9027 97000000 e7800012  .......'........
 00c0 ef1f1034 97000000 e7804011 ef1f1054  ...4......@....T
 00d0 97000000 e7808010 ef1f5077 97000000  ..........Pw....
 00e0 e780c00f ef2f001c 97000000 e780000f  ...../..........
 00f0 ef2fc03c 97000000 e780400e ef2f805d  ./.<......@../.]
 0100 97000000 e780800d ef2f4074 97000000  ........./@t....
 0110 e780c00c ef2fd011 97000000 e780000c  ...../..........
 0120 ef2fd024 97000000 e780400b ef2f5038  ./.$......@../P8
 0130 97000000 e780800a ef2f504b 97000000  ........./PK....
 0140 e780c009 ef2f5067 97000000 e7800009  ...../Pg........
 0150 ef2f907a 97000000 e7804008 ef3fc016  ./.z......@..?..
 0160 97000000 e7808007 ef3f801c 97000000  .........?......
 0170 e780c006 ef3f0026 97000000 e7800006  .....?.&........
 0180 ef3f802c 97000000 e7804005 ef3f4039  .?.,......@..?@9
 0190 97000000 e7808004 ef3f4051 97000000  .........?@Q....
 01a0 e780c003 ef3f9000 97000000 e7800003  .....?..........
 01b0 ef3fc067 97000000 e7804002 ef3fd018  .?.g......@..?..
 01c0 97000000 e7808001 ef3f9039 97000000  .........?.9....
 01d0 e780c000 6ff09fe3 83260800 93f61600  ....o....&......
 01e0 e39c06fe 13071700 23a0e500 67800000  ........#...g...
 01f0 13151500 13051500 2320a600 83260800  ........# ...&..
 0200 93f64600 638a0600 b7480f00 93880824  ..F.c....H.....$
 0210 9388f8ff e39e08fe 67800000 9307f0ff  ........g.......
 0220 23a0f500 83260800 93f64600 638a0600  #....&....F.c...
 0230 b7480f00 93880824 9388f8ff e39e08fe  .H.....$........
 0240 83260800 93f62600 e39c06fe 67800f00  .&....&.....g...
 0250 13050000 2320a600 93000000 13010000  ....# ..........
 0260 338f2000 930e0000 93012000 e318dffb  3. ....... .....
 0270 97000000 e78000f8 93001000 13011000  ................
 0280 338f2000 930e2000 93013000 e318dff9  3. ... ...0.....
 0290 97000000 e78000f6 93003000 13017000  ..........0...p.
 02a0 338f2000 930ea000 93014000 e318dff7  3. .......@.....
 02b0 97000000 e78000f4 93000000 3781ffff  ............7...
 02c0 338f2000 b78effff 93015000 e318dff5  3. .......P.....
 02d0 97000000 e78000f2 b7000080 13010000  ................
 02e0 338f2000 b70e0080 93016000 e318dff3  3. .......`.....
 02f0 97000000 e78000f0 b7000080 3781ffff  ............7...
 0300 338f2000 b78eff7f 93017000 e318dff1  3. .......p.....
 0310 97000000 e78000ee 93000000 37810000  ............7...
 0320 1301f1ff 338f2000 b78e0000 938efeff  ....3. .........
 0330 93018000 e314dfef 97000000 e78080eb  ................
 0340 b7000080 9380f0ff 13010000 338f2000  ............3. .
 0350 b70e0080 938efeff 93019000 e310dfed  ................
 0360 97000000 e78000e9 b7000080 9380f0ff  ................
 0370 37810000 1301f1ff 338f2000 b78e0080  7.......3. .....
 0380 938eeeff 9301a000 e31adfe9 97000000  ................
 0390 e78040e6 b7000080 37810000 1301f1ff  ..@.....7.......
 03a0 338f2000 b78e0080 938efeff 9301b000  3. .............
 03b0 e316dfe7 97000000 e780c0e3 b7000080  ................
 03c0 9380f0ff 3781ffff 338f2000 b78eff7f  ....7...3. .....
 03d0 938efeff 9301c000 e312dfe5 97000000  ................
 03e0 e78040e1 93000000 1301f0ff 338f2000  ..@.........3. .
 03f0 930ef0ff 9301d000 e312dfe3 97000000  ................
 0400 e78040df 9300f0ff 13011000 338f2000  ..@.........3. .
 0410 930e0000 9301e000 e312dfe1 97000000  ................
 0420 e78040dd 9300f0ff 1301f0ff 338f2000  ..@.........3. .
 0430 930ee0ff 9301f000 e312dfdf 97000000  ................
 0440 e78040db 93001000 37010080 1301f1ff  ..@.....7.......
 0450 338f2000 b70e0080 93010001 e310dfdd  3. .............
 0460 97000000 e78000d9 9300d000 1301b000  ................
 0470 b3802000 930e8001 93011001 e390d0db  .. .............
 0480 97000000 e78000d7 9300e000 1301b000  ................
 0490 33812000 930e9001 93012001 e310d1d9  3. ....... .....
 04a0 97000000 e78000d5 67800f00 13050000  ........g.......
 04b0 2320a600 93000000 13010000 338f2040  # ..........3. @
 04c0 930e0000 93012000 e31adfd5 97000000  ...... .........
 04d0 e78040d2 93001000 13011000 338f2040  ..@.........3. @
 04e0 930e0000 93013000 e31adfd3 97000000  ......0.........
 04f0 e78040d0 93003000 13017000 338f2040  ..@...0...p.3. @
 0500 930ec0ff 93014000 e31adfd1 97000000  ......@.........
 0510 e78040ce 93000000 3781ffff 338f2040  ..@.....7...3. @
 0520 b78e0000 93015000 e31adfcf 97000000  ......P.........
 0530 e78040cc b7000080 13010000 338f2040  ..@.........3. @
 0540 b70e0080 93016000 e31adfcd 97000000  ......`.........
 0550 e78040ca b7000080 3781ffff 338f2040  ..@.....7...3. @
 0560 b78e0080 93017000 e31adfcb 97000000  ......p.........
 0570 e78040c8 93000000 37810000 1301f1ff  ..@.....7.......
 0580 338f2040 b78effff 938e1e00 93018000  3. @............
 0590 e316dfc9 97000000 e780c0c5 b7000080  ................
 05a0 9380f0ff 13010000 338f2040 b70e0080  ........3. @....
 05b0 938efeff 93019000 e312dfc7 97000000  ................
 05c0 e78040c3 b7000080 9380f0ff 37810000  ..@.........7...
 05d0 1301f1ff 338f2040 b78eff7f 9301a000  ....3. @........
 05e0 e31edfc3 97000000 e780c0c0 b7000080  ................
 05f0 37810000 1301f1ff 338f2040 b78eff7f  7.......3. @....
 0600 938e1e00 9301b000 e31adfc1 97000000  ................
 0610 e78040be b7000080 9380f0ff 3781ffff  ..@.........7...
 0620 338f2040 b78e0080 938efeff 9301c000  3. @............
 0630 e316dfbf 97000000 e780c0bb 93000000  ................
 0640 1301f0ff 338f2040 930e1000 9301d000  ....3. @........
 0650 e316dfbd 97000000 e780c0b9 9300f0ff  ................
 0660 13011000 338f2040 930ee0ff 9301e000  ....3. @........
 0670 e316dfbb 97000000 e780c0b7 9300f0ff  ................
 0680 1301f0ff 338f2040 930e0000 9301f000  ....3. @........
 0690 e316dfb9 97000000 e780c0b5 9300d000  ................
 06a0 1301b000 b3802040 930e2000 93010001  ...... @.. .....
 06b0 e396d0b7 97000000 e780c0b3 9300e000  ................
 06c0 1301b000 33812040 930e3000 93011001  ....3. @..0.....
 06d0 e316d1b5 97000000 e780c0b1 67800f00  ............g...
 06e0 13050000 2320a600 b70001ff 938000f0  ....# ..........
 06f0 37110f0f 1301f1f0 33ff2000 b71e000f  7.......3. .....
 0700 938e0ef0 93012000 e31adfb1 97000000  ...... .........
 0710 e78040ae b710f00f 938000ff 37f1f0f0  ..@.........7...
 0720 1301010f 33ff2000 b70ef000 938e0e0f  ....3. .........
 0730 93013000 e314dfaf 97000000 e78080ab  ..0.............
 0740 b700ff00 9380f00f 37110f0f 1301f1f0  ........7.......
 0750 33ff2000 b70e0f00 938efe00 93014000  3. ...........@.
 0760 e31edfab 97000000 e780c0a8 b7f00ff0  ................
 0770 9380f000 37f1f0f0 1301010f 33ff2000  ....7.......3. .
 0780 b7fe00f0 93015000 e31adfa9 97000000  ......P.........
 0790 e78040a6 b70001ff 938000f0 37110f0f  ..@.........7...
 07a0 1301f1f0 b3f02000 b71e000f 938e0ef0  ...... .........
 07b0 93016000 e394d0a7 97000000 e78080a3  ..`.............
 07c0 b710f00f 938000ff 37f1f0f0 1301010f  ........7.......
 07d0 33f12000 b70ef000 938e0e0f 93017000  3. ...........p.
 07e0 e31ed1a3 97000000 e780c0a0 b70001ff  ................
 07f0 938000f0 b3f01000 b70e01ff 938e0ef0  ................
 0800 93018000 e39cd0a1 97000000 e780809e  ................
 0810 67800f00 13050000 2320a600 b70001ff  g.......# ......
 0820 938000f0 37110f0f 1301f1f0 33ef2000  ....7.......3. .
 0830 b70e10ff 938efef0 93012000 e310df9f  .......... .....
 0840 97000000 e780009b b710f00f 938000ff  ................
 0850 37f1f0f0 1301010f 33ef2000 b70ef1ff  7.......3. .....
 0860 938e0eff 93013000 e31adf9b 97000000  ......0.........
 0870 e7804098 b700ff00 9380f00f 37110f0f  ..@.........7...
 0880 1301f1f0 33ef2000 b71eff0f 938efeff  ....3. .........
 0890 93014000 e314df99 97000000 e7808095  ..@.............
 08a0 b7f00ff0 9380f000 37f1f0f0 1301010f  ........7.......
 08b0 33ef2000 b7fefff0 938efe0f 93015000  3. ...........P.
 08c0 e31edf95 97000000 e780c092 b70001ff  ................
 08d0 938000f0 37110f0f 1301f1f0 b3e02000  ....7......... .
 08e0 b70e10ff 938efef0 93016000 e398d093  ..........`.....
 08f0 97000000 e7800090 b70001ff 938000f0  ................
 0900 37110f0f 1301f1f0 33e12000 b70e10ff  7.......3. .....
 0910 938efef0 93017000 e312d191 97000000  ......p.........
 0920 e780408d b70001ff 938000f0 b3e01000  ..@.............
 0930 b70e01ff 938e0ef0 93018000 e390d08f  ................
 0940 97000000 e780008b 67800f00 13050000  ........g.......
 0950 2320a600 b70001ff 938000f0 37110f0f  # ..........7...
 0960 1301f1f0 33cf2000 b7fe0ff0 938efe00  ....3. .........
 0970 93012000 e314df8b 97000000 e7808087  .. .............
 0980 b710f00f 938000ff 37f1f0f0 1301010f  ........7.......
 0990 33cf2000 b70e01ff 938e0ef0 93013000  3. ...........0.
 09a0 e31edf87 97000000 e780c084 b700ff00  ................
 09b0 9380f00f 37110f0f 1301f1f0 33cf2000  ....7.......3. .
 09c0 b71ef00f 938e0eff 93014000 e318df85  ..........@.....
 09d0 97000000 e7800082 b7f00ff0 9380f000  ................
 09e0 37f1f0f0 1301010f 33cf2000 b70eff00  7.......3. .....
 09f0 938efe0f 93015000 e312df83 97f0ffff  ......P.........
 0a00 e780407f b70001ff 938000f0 37110f0f  ..@.........7...
 0a10 1301f1f0 b3c02000 b7fe0ff0 938efe00  ...... .........
 0a20 93016000 639cd0ff 97f0ffff e780807c  ..`.c..........|
 0a30 b70001ff 938000f0 37110f0f 1301f1f0  ........7.......
 0a40 33c12000 b7fe0ff0 938efe00 93017000  3. ...........p.
 0a50 6316d1fd 97f0ffff e780c079 b70001ff  c..........y....
 0a60 938000f0 b3c01000 930e0000 93018000  ................
 0a70 6396d0fb 97f0ffff e780c077 67800f00  c..........wg...
 0a80 13050000 2320a600 93001000 13010000  ....# ..........
 0a90 339f2000 930e1000 93012000 6310dff9  3. ....... .c...
 0aa0 97f0ffff e7800075 93001000 13011000  .......u........
 0ab0 339f2000 930e2000 93013000 6310dff7  3. ... ...0.c...
 0ac0 97f0ffff e7800073 93001000 13017000  .......s......p.
 0ad0 339f2000 930e0008 93014000 6310dff5  3. .......@.c...
 0ae0 97f0ffff e7800071 93001000 1301e000  .......q........
 0af0 339f2000 b74e0000 93015000 6310dff3  3. ..N....P.c...
 0b00 97f0ffff e780006f 93001000 1301f001  .......o........
 0b10 339f2000 b70e0080 93016000 6310dff1  3. .......`.c...
 0b20 97f0ffff e780006d 9300f0ff 13010000  .......m........
 0b30 339f2000 930ef0ff 93017000 6310dfef  3. .......p.c...
 0b40 97f0ffff e780006b 9300f0ff 13011000  .......k........
 0b50 339f2000 930ee0ff 93018000 6310dfed  3. .........c...
 0b60 97f0ffff e7800069 9300f0ff 13017000  .......i......p.
 0b70 339f2000 930e00f8 93019000 6310dfeb  3. .........c...
 0b80 97f0ffff e7800067 9300f0ff 1301e000  .......g........
 0b90 339f2000 b7ceffff 9301a000 6310dfe9  3. .........c...
 0ba0 97f0ffff e7800065 9300f0ff 1301f001  .......e........
 0bb0 339f2000 b70e0080 9301b000 6310dfe7  3. .........c...
 0bc0 97f0ffff e7800063 b7202121 93801012  .......c. !!....
 0bd0 13010000 339f2000 b72e2121 938e1e12  ....3. ...!!....
 0be0 9301c000 631cdfe3 97f0ffff e7808060  ....c..........`
 0bf0 b7202121 93801012 13011000 339f2000  . !!........3. .
 0c00 b74e4242 938e2e24 9301d000 6318dfe1  .NBB...$....c...
 0c10 97f0ffff e780005e b7202121 93801012  .......^. !!....
 0c20 13017000 339f2000 b79e9090 938e0e08  ..p.3. .........
 0c30 9301e000 6314dfdf 97f0ffff e780805b  ....c..........[
 0c40 b7202121 93801012 1301e000 339f2000  . !!........3. .
 0c50 b74e4848 9301f000 6312dfdd 97f0ffff  .NHH....c.......
 0c60 e7804059 b7202121 93801012 1301f001  ..@Y. !!........
 0c70 339f2000 b70e0080 93010001 6310dfdb  3. .........c...
 0c80 97f0ffff e7800057 b7202121 93801012  .......W. !!....
 0c90 130100fc 339f2000 b72e2121 938e1e12  ....3. ...!!....
 0ca0 93011001 631cdfd7 97f0ffff e7808054  ....c..........T
 0cb0 b7202121 93801012 130110fc 339f2000  . !!........3. .
 0cc0 b74e4242 938e2e24 93012001 6318dfd5  .NBB...$.. .c...
 0cd0 97f0ffff e7800052 b7202121 93801012  .......R. !!....
 0ce0 130170fc 339f2000 b79e9090 938e0e08  ..p.3. .........
 0cf0 93013001 6314dfd3 97f0ffff e780804f  ..0.c..........O
 0d00 b7202121 93801012 1301e0fc 339f2000  . !!........3. .
 0d10 b74e4848 93014001 6312dfd1 97f0ffff  .NHH..@.c.......
 0d20 e780404d 67800f00 13050000 2320a600  ..@Mg.......# ..
 0d30 b7000080 13010000 33df2000 b70e0080  ........3. .....
 0d40 93012000 631cdfcd 97f0ffff e780804a  .. .c..........J
 0d50 b7000080 13011000 33df2000 b70e0040  ........3. ....@
 0d60 93013000 631cdfcb 97f0ffff e7808048  ..0.c..........H
 0d70 b7000080 13017000 33df2000 b70e0001  ......p.3. .....
 0d80 93014000 631cdfc9 97f0ffff e7808046  ..@.c..........F
 0d90 b7000080 1301e000 33df2000 b70e0200  ........3. .....
 0da0 93015000 631cdfc7 97f0ffff e7808044  ..P.c..........D
 0db0 b7000080 93801000 1301f001 33df2000  ............3. .
 0dc0 930e1000 93016000 631adfc5 97f0ffff  ......`.c.......
 0dd0 e7804042 9300f0ff 13010000 33df2000  ..@B........3. .
 0de0 930ef0ff 93017000 631adfc3 97f0ffff  ......p.c.......
 0df0 e7804040 9300f0ff 13011000 33df2000  ..@@........3. .
 0e00 b70e0080 938efeff 93018000 6318dfc1  ............c...
 0e10 97f0ffff e780003e 9300f0ff 13017000  .......>......p.
 0e20 33df2000 b70e0002 938efeff 93019000  3. .............
 0e30 6316dfbf 97f0ffff e780c03b 9300f0ff  c..........;....
 0e40 1301e000 33df2000 b70e0400 938efeff  ....3. .........
 0e50 9301a000 6314dfbd 97f0ffff e7808039  ....c..........9
 0e60 9300f0ff 1301f001 33df2000 930e1000  ........3. .....
 0e70 9301b000 6314dfbb 97f0ffff e7808037  ....c..........7
 0e80 b7202121 93801012 13010000 33df2000  . !!........3. .
 0e90 b72e2121 938e1e12 9301c000 6310dfb9  ..!!........c...
 0ea0 97f0ffff e7800035 b7202121 93801012  .......5. !!....
 0eb0 13011000 33df2000 b79e9010 938e0e09  ....3. .........
 0ec0 9301d000 631cdfb5 97f0ffff e7808032  ....c..........2
 0ed0 b7202121 93801012 13017000 33df2000  . !!......p.3. .
 0ee0 b74e4200 938e2e24 9301e000 6318dfb3  .NB....$....c...
 0ef0 97f0ffff e7800030 b7202121 93801012  .......0. !!....
 0f00 1301e000 33df2000 b78e0000 938e4e48  ....3. .......NH
 0f10 9301f000 6314dfb1 97f0ffff e780802d  ....c..........-
 0f20 b7202121 93801012 1301f001 33df2000  . !!........3. .
 0f30 930e0000 93010001 6312dfaf 97f0ffff  ........c.......
 0f40 e780402b b7202121 93801012 130100fc  ..@+. !!........
 0f50 33df2000 b72e2121 938e1e12 93011001  3. ...!!........
 0f60 631edfab 97f0ffff e780c028 b7202121  c..........(. !!
 0f70 93801012 130110fc 33df2000 b79e9010  ........3. .....
 0f80 938e0e09 93012001 631adfa9 97f0ffff  ...... .c.......
 0f90 e7804026 67800f00 13050000 2320a600  ..@&g.......# ..
 0fa0 b7000080 13010000 33df2040 b70e0080  ........3. @....
 0fb0 93012000 6314dfa7 97f0ffff e7808023  .. .c..........#
 0fc0 b7000080 13011000 33df2040 b70e00c0  ........3. @....
 0fd0 93013000 6314dfa5 97f0ffff e7808021  ..0.c..........!
 0fe0 b7000080 13017000 33df2040 b70e00ff  ......p.3. @....
 0ff0 93014000 6314dfa3 97f0ffff e780801f  ..@.c...........
 1000 b7000080 1301e000 33df2040 b70efeff  ........3. @....
 1010 93015000 6314dfa1 97f0ffff e780801d  ..P.c...........
 1020 b7000080 93801000 1301f001 33df2040  ............3. @
 1030 930ef0ff 93016000 6312df9f 97f0ffff  ......`.c.......
 1040 e780401b b7000080 9380f0ff 13010000  ..@.............
 1050 33df2040 b70e0080 938efeff 93017000  3. @..........p.
 1060 631edf9b 97f0ffff e780c018 b7000080  c...............
 1070 9380f0ff 13011000 33df2040 b70e0040  ........3. @...@
 1080 938efeff 93018000 631adf99 97f0ffff  ........c.......
 1090 e7804016 b7000080 9380f0ff 13017000  ..@...........p.
 10a0 33df2040 b70e0001 938efeff 93019000  3. @............
 10b0 6316df97 97f0ffff e780c013 b7000080  c...............
 10c0 9380f0ff 1301e000 33df2040 b70e0200  ........3. @....
 10d0 938efeff 9301a000 6312df95 97f0ffff  ........c.......
 10e0 e7804011 b7000080 9380f0ff 1301f001  ..@.............
 10f0 33df2040 930e0000 9301b000 6310df93  3. @........c...
 1100 97f0ffff e780000f b7808181 93801018  ................
 1110 13010000 33df2040 b78e8181 938e1e18  ....3. @........
 1120 9301c000 631cdf8f 97f0ffff e780800c  ....c...........
 1130 b7808181 93801018 13011000 33df2040  ............3. @
 1140 b7cec0c0 938e0e0c 9301d000 6318df8d  ............c...
 1150 97f0ffff e780000a b7808181 93801018  ................
 1160 13017000 33df2040 b70e03ff 938e3e30  ..p.3. @......>0
 1170 9301e000 6314df8b 97f0ffff e7808007  ....c...........
 1180 b7808181 93801018 1301e000 33df2040  ............3. @
 1190 b70efeff 938e6e60 9301f000 6310df89  ......n`....c...
 11a0 97f0ffff e7800005 b7808181 93801018  ................
 11b0 1301f001 33df2040 930ef0ff 93010001  ....3. @........
 11c0 631edf85 97f0ffff e780c002 b7808181  c...............
 11d0 93801018 130100fc 33df2040 b78e8181  ........3. @....
 11e0 938e1e18 93011001 631adf83 97f0ffff  ........c.......
 11f0 e7804000 b7808181 93801018 130110fc  ..@.............
 1200 33df2040 b7cec0c0 938e0e0c 93012001  3. @.......... .
 1210 6316df81 97f0ffff e780c0fd b7808181  c...............
 1220 93801018 130170fc 33df2040 b70e03ff  ......p.3. @....
 1230 938e3e30 93013001 6304df01 6fe01ffe  ..>0..0.c...o...
 1240 97f0ffff e78000fb b7808181 93801018  ................
 1250 1301e0fc 33df2040 b70efeff 938e6e60  ....3. @......n`
 1260 93014001 6304df01 6fe05ffb 97f0ffff  ..@.c...o._.....
 1270 e78040f8 b7808181 93801018 1301f0ff  ..@.............
 1280 33df2040 930ef0ff 93015001 6304df01  3. @......P.c...
 1290 6fe0dff8 97f0ffff e780c0f5 67800f00  o...........g...
 12a0 13050000 2320a600 93000000 13010000  ....# ..........
 12b0 33af2000 930e0000 93012000 6304df01  3. ....... .c...
 12c0 6fe0dff5 97f0ffff e780c0f2 93001000  o...............
 12d0 13011000 33af2000 930e0000 93013000  ....3. .......0.
 12e0 6304df01 6fe09ff3 97f0ffff e78080f0  c...o...........
 12f0 93003000 13017000 33af2000 930e1000  ..0...p.3. .....
 1300 93014000 6304df01 6fe05ff1 97f0ffff  ..@.c...o._.....
 1310 e78040ee 93007000 13013000 33af2000  ..@...p...0.3. .
 1320 930e0000 93015000 6304df01 6fe01fef  ......P.c...o...
 1330 97f0ffff e78000ec 93000000 3781ffff  ............7...
 1340 33af2000 930e0000 93016000 6304df01  3. .......`.c...
 1350 6fe0dfec 97f0ffff e780c0e9 b7000080  o...............
 1360 13010000 33af2000 930e1000 93017000  ....3. .......p.
 1370 6304df01 6fe09fea 97f0ffff e78080e7  c...o...........
 1380 b7000080 3781ffff 33af2000 930e1000  ....7...3. .....
 1390 93018000 6304df01 6fe05fe8 97f0ffff  ....c...o._.....
 13a0 e78040e5 93000000 37810000 1301f1ff  ..@.....7.......
 13b0 33af2000 930e1000 93019000 6304df01  3. .........c...
 13c0 6fe0dfe5 97f0ffff e780c0e2 b7000080  o...............
 13d0 9380f0ff 13010000 33af2000 930e0000  ........3. .....
 13e0 9301a000 6304df01 6fe05fe3 97f0ffff  ....c...o._.....
 13f0 e78040e0 b7000080 9380f0ff 37810000  ..@.........7...
 1400 1301f1ff 33af2000 930e0000 9301b000  ....3. .........
 1410 6304df01 6fe09fe0 97f0ffff e78080dd  c...o...........
 1420 b7000080 37810000 1301f1ff 33af2000  ....7.......3. .
 1430 930e1000 9301c000 6304df01 6fe01fde  ........c...o...
 1440 97f0ffff e78000db b7000080 9380f0ff  ................
 1450 3781ffff 33af2000 930e0000 9301d000  7...3. .........
 1460 6304df01 6fe09fdb 97f0ffff e78080d8  c...o...........
 1470 93000000 1301f0ff 33af2000 930e0000  ........3. .....
 1480 9301e000 6304df01 6fe05fd9 97f0ffff  ....c...o._.....
 1490 e78040d6 9300f0ff 13011000 33af2000  ..@.........3. .
 14a0 930e1000 9301f000 6304df01 6fe01fd7  ........c...o...
 14b0 97f0ffff e78000d4 9300f0ff 1301f0ff  ................
 14c0 33af2000 930e0000 93010001 6304df01  3. .........c...
 14d0 6fe0dfd4 97f0ffff e780c0d1 9300e000  o...............
 14e0 1301d000 b3a02000 930e0000 93011001  ...... .........
 14f0 6384d001 6fe09fd2 97f0ffff e78080cf  c...o...........
 1500 67800f00 13050000 2320a600 93000000  g.......# ......
 1510 13010000 33bf2000 930e0000 93012000  ....3. ....... .
 1520 6304df01 6fe09fcf 97f0ffff e78080cc  c...o...........
 1530 93001000 13011000 33bf2000 930e0000  ........3. .....
 1540 93013000 6304df01 6fe05fcd 97f0ffff  ..0.c...o._.....
 1550 e78040ca 93003000 13017000 33bf2000  ..@...0...p.3. .
 1560 930e1000 93014000 6304df01 6fe01fcb  ......@.c...o...
 1570 97f0ffff e78000c8 93007000 13013000  ..........p...0.
 1580 33bf2000 930e0000 93015000 6304df01  3. .......P.c...
 1590 6fe0dfc8 97f0ffff e780c0c5 93000000  o...............
 15a0 3781ffff 33bf2000 930e1000 93016000  7...3. .......`.
 15b0 6304df01 6fe09fc6 97f0ffff e78080c3  c...o...........
 15c0 b7000080 13010000 33bf2000 930e0000  ........3. .....
 15d0 93017000 6304df01 6fe05fc4 97f0ffff  ..p.c...o._.....
 15e0 e78040c1 b7000080 3781ffff 33bf2000  ..@.....7...3. .
 15f0 930e1000 93018000 6304df01 6fe01fc2  ........c...o...
 1600 97f0ffff e78000bf 93000000 37810000  ............7...
 1610 1301f1ff 33bf2000 930e1000 93019000  ....3. .........
 1620 6304df01 6fe09fbf 97f0ffff e78080bc  c...o...........
 1630 b7000080 9380f0ff 13010000 33bf2000  ............3. .
 1640 930e0000 9301a000 6304df01 6fe01fbd  ........c...o...
 1650 97f0ffff e78000ba b7000080 9380f0ff  ................
 1660 37810000 1301f1ff 33bf2000 930e0000  7.......3. .....
 1670 9301b000 6304df01 6fe05fba 97f0ffff  ....c...o._.....
 1680 e78040b7 b7000080 37810000 1301f1ff  ..@.....7.......
 1690 33bf2000 930e0000 9301c000 6304df01  3. .........c...
 16a0 6fe0dfb7 97f0ffff e780c0b4 b7000080  o...............
 16b0 9380f0ff 3781ffff 33bf2000 930e1000  ....7...3. .....
 16c0 9301d000 6304df01 6fe05fb5 97f0ffff  ....c...o._.....
 16d0 e78040b2 93000000 1301f0ff 33bf2000  ..@.........3. .
 16e0 930e1000 9301e000 6304df01 6fe01fb3  ........c...o...
 16f0 97f0ffff e78000b0 9300f0ff 13011000  ................
 1700 33bf2000 930e0000 9301f000 6304df01  3. .........c...
 1710 6fe0dfb0 97f0ffff e780c0ad 9300f0ff  o...............
 1720 1301f0ff 33bf2000 930e0000 93010001  ....3. .........
 1730 6304df01 6fe09fae 97f0ffff e78080ab  c...o...........
 1740 9300e000 1301d000 b3b02000 930e0000  .......... .....
 1750 93011001 6384d001 6fe05fac 97f0ffff  ....c...o._.....
 1760 e78040a9 67800f00 13050000 2320a600  ..@.g.......# ..
 1770 93000000 138f0000 930e0000 93012000  .............. .
 1780 6304df01 6fe09fa9 97f0ffff e78080a6  c...o...........
 1790 93001000 138f1000 930e2000 93013000  .......... ...0.
 17a0 6304df01 6fe09fa7 97f0ffff e78080a4  c...o...........
 17b0 93003000 138f7000 930ea000 93014000  ..0...p.......@.
 17c0 6304df01 6fe09fa5 97f0ffff e78080a2  c...o...........
 17d0 93000000 138f0080 930e0080 93015000  ..............P.
 17e0 6304df01 6fe09fa3 97f0ffff e78080a0  c...o...........
 17f0 b7000080 138f0000 b70e0080 93016000  ..............`.
 1800 6304df01 6fe09fa1 97f0ffff e780809e  c...o...........
 1810 b7000080 138f0080 b70e0080 938e0e80  ................
 1820 93017000 6304df01 6fe05f9f 97f0ffff  ..p.c...o._.....
 1830 e780409c 93000000 138ff07f 930ef07f  ..@.............
 1840 93018000 6304df01 6fe05f9d 97f0ffff  ....c...o._.....
 1850 e780409a b7000080 9380f0ff 138f0000  ..@.............
 1860 b70e0080 938efeff 93019000 6304df01  ............c...
 1870 6fe0df9a 97f0ffff e780c097 b7000080  o...............
 1880 9380f0ff 138ff07f b70e0080 938eee7f  ................
 1890 9301a000 6304df01 6fe05f98 97f0ffff  ....c...o._.....
 18a0 e7804095 b7000080 138ff07f b70e0080  ..@.............
 18b0 938efe7f 9301b000 6304df01 6fe01f96  ........c...o...
 18c0 97f0ffff e7800093 b7000080 9380f0ff  ................
 18d0 138f0080 b7feff7f 938efe7f 9301c000  ................
 18e0 6304df01 6fe09f93 97f0ffff e7808090  c...o...........
 18f0 93000000 138ff0ff 930ef0ff 9301d000  ................
 1900 6304df01 6fe09f91 97f0ffff e780808e  c...o...........
 1910 9300f0ff 138f1000 930e0000 9301e000  ................
 1920 6304df01 6fe09f8f 97f0ffff e780808c  c...o...........
 1930 9300f0ff 138ff0ff 930ee0ff 9301f000  ................
 1940 6304df01 6fe09f8d 97f0ffff e780808a  c...o...........
 1950 b7000080 9380f0ff 138f1000 b70e0080  ................
 1960 93010001 6304df01 6fe05f8b 97f0ffff  ....c...o._.....
 1970 e7804088 9300d000 9380b000 930e8001  ..@.............
 1980 93011001 6384d001 6fe05f89 97f0ffff  ....c...o._.....
 1990 e7804086 67800f00 13050000 2320a600  ..@.g.......# ..
 19a0 b70001ff 938000f0 13fff0f0 b70e01ff  ................
 19b0 938e0ef0 93012000 6304df01 6fe01f86  ...... .c...o...
 19c0 97f0ffff e7800083 b710f00f 938000ff  ................
 19d0 13ff000f 930e000f 93013000 6304df01  ..........0.c...
 19e0 6fe0df83 97f0ffff e780c080 b700ff00  o...............
 19f0 9380f00f 13fff070 930ef000 93014000  .......p......@.
 1a00 6304df01 6fe09f81 97e0ffff e780807e  c...o..........~
 1a10 b7f00ff0 9380f000 13ff000f 930e0000  ................
 1a20 93015000 6304df01 6fe04fff 97e0ffff  ..P.c...o.O.....
 1a30 e780407c b70001ff 938000f0 93f0000f  ..@|............
 1a40 930e0000 93016000 6384d001 6fe00ffd  ......`.c...o...
 1a50 97e0ffff e780007a 67800f00 13050000  .......zg.......
 1a60 2320a600 b70001ff 938000f0 13eff0f0  # ..............
 1a70 930ef0f0 93012000 6304df01 6fe00ffa  ...... .c...o...
 1a80 97e0ffff e7800077 b710f00f 938000ff  .......w........
 1a90 13ef000f b71ef00f 938e0eff 93013000  ..............0.
 1aa0 6304df01 6fe08ff7 97e0ffff e7808074  c...o..........t
 1ab0 b700ff00 9380f00f 13eff070 b70eff00  ...........p....
 1ac0 938efe7f 93014000 6304df01 6fe00ff5  ......@.c...o...
 1ad0 97e0ffff e7800072 b7f00ff0 9380f000  .......r........
 1ae0 13ef000f b7fe0ff0 938efe0f 93015000  ..............P.
 1af0 6304df01 6fe08ff2 97e0ffff e780806f  c...o..........o
 1b00 b70001ff 938000f0 93e0000f b70e01ff  ................
 1b10 938e0eff 93016000 6384d001 6fe00ff0  ......`.c...o...
 1b20 97e0ffff e780006d 67800f00 13050000  .......mg.......
 1b30 2320a600 b710ff00 938000f0 13cff0f0  # ..............
 1b40 b7fe00ff 938efe00 93012000 6304df01  .......... .c...
 1b50 6fe0cfec 97e0ffff e780c069 b710f00f  o..........i....
 1b60 938000ff 13cf000f b71ef00f 938e0ef0  ................
 1b70 93013000 6304df01 6fe04fea 97e0ffff  ..0.c...o.O.....
 1b80 e7804067 b710ff00 9380f08f 13cff070  ..@g...........p
 1b90 b71eff00 938e0eff 93014000 6304df01  ..........@.c...
 1ba0 6fe0cfe7 97e0ffff e780c064 b7f00ff0  o..........d....
 1bb0 9380f000 13cf000f b7fe0ff0 938efe0f  ................
 1bc0 93015000 6304df01 6fe04fe5 97e0ffff  ..P.c...o.O.....
 1bd0 e7804062 b7f000ff 93800070 93c0f070  ..@b.......p...p
 1be0 b7fe00ff 938efe00 93016000 6384d001  ..........`.c...
 1bf0 6fe0cfe2 97e0ffff e780c05f 67800f00  o.........._g...
 1c00 13050000 2320a600 93001000 139f0000  ....# ..........
 1c10 930e1000 93012000 6304df01 6fe00fe0  ...... .c...o...
 1c20 97e0ffff e780005d 93001000 139f1000  .......]........
 1c30 930e2000 93013000 6304df01 6fe00fde  .. ...0.c...o...
 1c40 97e0ffff e780005b 93001000 139f7000  .......[......p.
 1c50 930e0008 93014000 6304df01 6fe00fdc  ......@.c...o...
 1c60 97e0ffff e7800059 93001000 139fe000  .......Y........
 1c70 b74e0000 93015000 6304df01 6fe00fda  .N....P.c...o...
 1c80 97e0ffff e7800057 93001000 139ff001  .......W........
 1c90 b70e0080 93016000 6304df01 6fe00fd8  ......`.c...o...
 1ca0 97e0ffff e7800055 9300f0ff 139f0000  .......U........
 1cb0 930ef0ff 93017000 6304df01 6fe00fd6  ......p.c...o...
 1cc0 97e0ffff e7800053 9300f0ff 139f1000  .......S........
 1cd0 930ee0ff 93018000 6304df01 6fe00fd4  ........c...o...
 1ce0 97e0ffff e7800051 9300f0ff 139f7000  .......Q......p.
 1cf0 930e00f8 93019000 6304df01 6fe00fd2  ........c...o...
 1d00 97e0ffff e780004f 9300f0ff 139fe000  .......O........
 1d10 b7ceffff 9301a000 6304df01 6fe00fd0  ........c...o...
 1d20 97e0ffff e780004d 9300f0ff 139ff001  .......M........
 1d30 b70e0080 9301b000 6304df01 6fe00fce  ........c...o...
 1d40 97e0ffff e780004b b7202121 93801012  .......K. !!....
 1d50 139f0000 b72e2121 938e1e12 9301c000  ......!!........
 1d60 6304df01 6fe08fcb 97e0ffff e7808048  c...o..........H
 1d70 b7202121 93801012 139f1000 b74e4242  . !!.........NBB
 1d80 938e2e24 9301d000 6304df01 6fe00fc9  ...$....c...o...
 1d90 97e0ffff e7800046 b7202121 93801012  .......F. !!....
 1da0 139f7000 b79e9090 938e0e08 9301e000  ..p.............
 1db0 6304df01 6fe08fc6 97e0ffff e7808043  c...o..........C
 1dc0 b7202121 93801012 139fe000 b74e4848  . !!.........NHH
 1dd0 9301f000 6304df01 6fe04fc4 97e0ffff  ....c...o.O.....
 1de0 e7804041 b7202121 93801012 139ff001  ..@A. !!........
 1df0 b70e0080 93010001 6304df01 6fe00fc2  ........c...o...
 1e00 97e0ffff e780003f 67800f00 13050000  .......?g.......
 1e10 2320a600 b7000080 13df0000 b70e0080  # ..............
 1e20 93012000 6304df01 6fe04fbf 97e0ffff  .. .c...o.O.....
 1e30 e780403c b7000080 13df1000 b70e0040  ..@<...........@
 1e40 93013000 6304df01 6fe04fbd 97e0ffff  ..0.c...o.O.....
 1e50 e780403a b7000080 13df7000 b70e0001  ..@:......p.....
 1e60 93014000 6304df01 6fe04fbb 97e0ffff  ..@.c...o.O.....
 1e70 e7804038 b7000080 13dfe000 b70e0200  ..@8............
 1e80 93015000 6304df01 6fe04fb9 97e0ffff  ..P.c...o.O.....
 1e90 e7804036 b7000080 93801000 13dff001  ..@6............
 1ea0 930e1000 93016000 6304df01 6fe00fb7  ......`.c...o...
 1eb0 97e0ffff e7800034 9300f0ff 13df0000  .......4........
 1ec0 930ef0ff 93017000 6304df01 6fe00fb5  ......p.c...o...
 1ed0 97e0ffff e7800032 9300f0ff 13df1000  .......2........
 1ee0 b70e0080 938efeff 93018000 6304df01  ............c...
 1ef0 6fe0cfb2 97e0ffff e780c02f 9300f0ff  o........../....
 1f00 13df7000 b70e0002 938efeff 93019000  ..p.............
 1f10 6304df01 6fe08fb0 97e0ffff e780802d  c...o..........-
 1f20 9300f0ff 13dfe000 b70e0400 938efeff  ................
 1f30 9301a000 6304df01 6fe04fae 97e0ffff  ....c...o.O.....
 1f40 e780402b 9300f0ff 13dff001 930e1000  ..@+............
 1f50 9301b000 6304df01 6fe04fac 97e0ffff  ....c...o.O.....
 1f60 e7804029 b7202121 93801012 13df0000  ..@). !!........
 1f70 b72e2121 938e1e12 9301c000 6304df01  ..!!........c...
 1f80 6fe0cfa9 97e0ffff e780c026 b7202121  o..........&. !!
 1f90 93801012 13df1000 b79e9010 938e0e09  ................
 1fa0 9301d000 6304df01 6fe04fa7 97e0ffff  ....c...o.O.....
 1fb0 e7804024 b7202121 93801012 13df7000  ..@$. !!......p.
 1fc0 b74e4200 938e2e24 9301e000 6304df01  .NB....$....c...
 1fd0 6fe0cfa4 97e0ffff e780c021 b7202121  o..........!. !!
 1fe0 93801012 13dfe000 b78e0000 938e4e48  ..............NH
 1ff0 9301f000 6304df01 6fe04fa2 97e0ffff  ....c...o.O.....
 2000 e780401f b7202121 93801012 13dff001  ..@.. !!........
 2010 930e0000 93010001 6304df01 6fe00fa0  ........c...o...
 2020 97e0ffff e780001d b7000080 93d07000  ..............p.
 2030 b70e0001 93011001 6384d001 6fe00f9e  ........c...o...
 2040 97e0ffff e780001b 67800f00 13050000  ........g.......
 2050 2320a600 93000000 13df0040 930e0000  # .........@....
 2060 93012000 6304df01 6fe04f9b 97e0ffff  .. .c...o.O.....
 2070 e7804018 b7000080 13df1040 b70e00c0  ..@........@....
 2080 93013000 6304df01 6fe04f99 97e0ffff  ..0.c...o.O.....
 2090 e7804016 b7000080 13df7040 b70e00ff  ..@.......p@....
 20a0 93014000 6304df01 6fe04f97 97e0ffff  ..@.c...o.O.....
 20b0 e7804014 b7000080 13dfe040 b70efeff  ..@........@....
 20c0 93015000 6304df01 6fe04f95 97e0ffff  ..P.c...o.O.....
 20d0 e7804012 b7000080 93801000 13dff041  ..@............A
 20e0 930ef0ff 93016000 6304df01 6fe00f93  ......`.c...o...
 20f0 97e0ffff e7800010 b7000080 9380f0ff  ................
 2100 13df0040 b70e0080 938efeff 93017000  ...@..........p.
 2110 6304df01 6fe08f90 97e0ffff e780800d  c...o...........
 2120 b7000080 9380f0ff 13df1040 b70e0040  ...........@...@
 2130 938efeff 93018000 6304df01 6fe00f8e  ........c...o...
 2140 97e0ffff e780000b b7000080 9380f0ff  ................
 2150 13df7040 b70e0001 938efeff 93019000  ..p@............
 2160 6304df01 6fe08f8b 97e0ffff e7808008  c...o...........
 2170 b7000080 9380f0ff 13dfe040 b70e0200  ...........@....
 2180 938efeff 9301a000 6304df01 6fe00f89  ........c...o...
 2190 97e0ffff e7800006 b7000080 9380f0ff  ................
 21a0 13dff041 930e0000 9301b000 6304df01  ...A........c...
 21b0 6fe0cf86 97e0ffff e780c003 b7808181  o...............
 21c0 93801018 13df0040 b78e8181 938e1e18  .......@........
 21d0 9301c000 6304df01 6fe04f84 97e0ffff  ....c...o.O.....
 21e0 e7804001 b7808181 93801018 13df1040  ..@............@
 21f0 b7cec0c0 938e0e0c 9301d000 6304df01  ............c...
 2200 6fe0cf81 97e0ffff e780c0fe b7808181  o...............
 2210 93801018 13df7040 b70e03ff 938e3e30  ......p@......>0
 2220 9301e000 6304df01 6fd05fff 97e0ffff  ....c...o._.....
 2230 e78040fc b7808181 93801018 13dfe040  ..@............@
 2240 b70efeff 938e6e60 9301f000 6304df01  ......n`....c...
 2250 6fd0dffc 97e0ffff e780c0f9 b7808181  o...............
 2260 93801018 13dff041 930ef0ff 93010001  .......A........
 2270 6304df01 6fd09ffa 97e0ffff e78080f7  c...o...........
 2280 b7000080 93d07040 b70e00ff 93011001  ......p@........
 2290 6384d001 6fd09ff8 97e0ffff e78080f5  c...o...........
 22a0 67800f00 13050000 2320a600 93000000  g.......# ......
 22b0 13bf0000 930e0000 93012000 6304df01  .......... .c...
 22c0 6fd0dff5 97e0ffff e780c0f2 93001000  o...............
 22d0 13bf1000 930e0000 93013000 6304df01  ..........0.c...
 22e0 6fd0dff3 97e0ffff e780c0f0 93003000  o.............0.
 22f0 13bf7000 930e1000 93014000 6304df01  ..p.......@.c...
 2300 6fd0dff1 97e0ffff e780c0ee 93007000  o.............p.
 2310 13bf3000 930e0000 93015000 6304df01  ..0.......P.c...
 2320 6fd0dfef 97e0ffff e780c0ec 93000000  o...............
 2330 13bf0080 930e1000 93016000 6304df01  ..........`.c...
 2340 6fd0dfed 97e0ffff e780c0ea b7000080  o...............
 2350 13bf0000 930e0000 93017000 6304df01  ..........p.c...
 2360 6fd0dfeb 97e0ffff e780c0e8 b7000080  o...............
 2370 13bf0080 930e1000 93018000 6304df01  ............c...
 2380 6fd0dfe9 97e0ffff e780c0e6 93000000  o...............
 2390 13bff07f 930e1000 93019000 6304df01  ............c...
 23a0 6fd0dfe7 97e0ffff e780c0e4 b7000080  o...............
 23b0 9380f0ff 13bf0000 930e0000 9301a000  ................
 23c0 6304df01 6fd09fe5 97e0ffff e78080e2  c...o...........
 23d0 b7000080 9380f0ff 13bff07f 930e0000  ................
 23e0 9301b000 6304df01 6fd05fe3 97e0ffff  ....c...o._.....
 23f0 e78040e0 b7000080 13bff07f 930e0000  ..@.............
 2400 9301c000 6304df01 6fd05fe1 97e0ffff  ....c...o._.....
 2410 e78040de b7000080 9380f0ff 13bf0080  ..@.............
 2420 930e1000 9301d000 6304df01 6fd01fdf  ........c...o...
 2430 97e0ffff e78000dc 93000000 13bff0ff  ................
 2440 930e1000 9301e000 6304df01 6fd01fdd  ........c...o...
 2450 97e0ffff e78000da 9300f0ff 13bf1000  ................
 2460 930e0000 9301f000 6304df01 6fd01fdb  ........c...o...
 2470 97e0ffff e78000d8 9300f0ff 13bff0ff  ................
 2480 930e0000 93010001 6304df01 6fd01fd9  ........c...o...
 2490 97e0ffff e78000d6 9300b000 93b0d000  ................
 24a0 930e1000 93011001 6384d001 6fd01fd7  ........c...o...
 24b0 97e0ffff e78000d4 67800f00 13050000  ........g.......
 24c0 2320a600 93000000 13af0000 930e0000  # ..............
 24d0 93012000 6304df01 6fd05fd4 97e0ffff  .. .c...o._.....
 24e0 e78040d1 93001000 13af1000 930e0000  ..@.............
 24f0 93013000 6304df01 6fd05fd2 97e0ffff  ..0.c...o._.....
 2500 e78040cf 93003000 13af7000 930e1000  ..@...0...p.....
 2510 93014000 6304df01 6fd05fd0 97e0ffff  ..@.c...o._.....
 2520 e78040cd 93007000 13af3000 930e0000  ..@...p...0.....
 2530 93015000 6304df01 6fd05fce 97e0ffff  ..P.c...o._.....
 2540 e78040cb 93000000 13af0080 930e0000  ..@.............
 2550 93016000 6304df01 6fd05fcc 97e0ffff  ..`.c...o._.....
 2560 e78040c9 b7000080 13af0000 930e1000  ..@.............
 2570 93017000 6304df01 6fd05fca 97e0ffff  ..p.c...o._.....
 2580 e78040c7 b7000080 13af0080 930e1000  ..@.............
 2590 93018000 6304df01 6fd05fc8 97e0ffff  ....c...o._.....
 25a0 e78040c5 93000000 13aff07f 930e1000  ..@.............
 25b0 93019000 6304df01 6fd05fc6 97e0ffff  ....c...o._.....
 25c0 e78040c3 b7000080 9380f0ff 13af0000  ..@.............
 25d0 930e0000 9301a000 6304df01 6fd01fc4  ........c...o...
 25e0 97e0ffff e78000c1 b7000080 9380f0ff  ................
 25f0 13aff07f 930e0000 9301b000 6304df01  ............c...
 2600 6fd0dfc1 97e0ffff e780c0be b7000080  o...............
 2610 13aff07f 930e1000 9301c000 6304df01  ............c...
 2620 6fd0dfbf 97e0ffff e780c0bc b7000080  o...............
 2630 9380f0ff 13af0080 930e0000 9301d000  ................
 2640 6304df01 6fd09fbd 97e0ffff e78080ba  c...o...........
 2650 93000000 13aff0ff 930e0000 9301e000  ................
 2660 6304df01 6fd09fbb 97e0ffff e78080b8  c...o...........
 2670 9300f0ff 13af1000 930e1000 9301f000  ................
 2680 6304df01 6fd09fb9 97e0ffff e78080b6  c...o...........
 2690 9300f0ff 13aff0ff 930e0000 93010001  ................
 26a0 6304df01 6fd09fb7 97e0ffff e78080b4  c...o...........
 26b0 9300b000 93a0d000 930e1000 93011001  ................
 26c0 6384d001 6fd09fb5 97e0ffff e78080b2  c...o...........
 26d0 67800f00 13050000 2320a600 97200000  g.......# ... ..
 26e0 93804087 03af0000 b70eff00 938efe0f  ..@.............
 26f0 93012000 6304df01 6fd05fb2 97e0ffff  .. .c...o._.....
 2700 e78040af 97200000 9380c084 03af4000  ..@.. ........@.
 2710 b70e01ff 938e0ef0 93013000 6304df01  ..........0.c...
 2720 6fd0dfaf 97e0ffff e780c0ac 97200000  o............ ..
 2730 93804082 03af8000 b71ef00f 938e0eff  ..@.............
 2740 93014000 6304df01 6fd05fad 97e0ffff  ..@.c...o._.....
 2750 e78040aa 97100000 9380c07f 03afc000  ..@.............
 2760 b7fe0ff0 938efe00 93015000 6304df01  ..........P.c...
 2770 6fd0dfaa 97e0ffff e780c0a7 97100000  o...............
 2780 9380007e 03af40ff b70eff00 938efe0f  ...~..@.........
 2790 93016000 6304df01 6fd05fa8 97e0ffff  ..`.c...o._.....
 27a0 e78040a5 97100000 9380807b 03af80ff  ..@........{....
 27b0 b70e01ff 938e0ef0 93017000 6304df01  ..........p.c...
 27c0 6fd0dfa5 97e0ffff e780c0a2 97100000  o...............
 27d0 93800079 03afc0ff b71ef00f 938e0eff  ...y............
 27e0 93018000 6304df01 6fd05fa3 97e0ffff  ....c...o._.....
 27f0 e78040a0 97100000 93808076 03af0000  ..@........v....
 2800 b7fe0ff0 938efe00 93019000 6304df01  ............c...
 2810 6fd0dfa0 97e0ffff e780c09d 97100000  o...............
 2820 93804073 938000fe 83a20002 b70eff00  ..@s............
 2830 938efe0f 9301a000 6384d201 6fd01f9e  ........c...o...
 2840 97e0ffff e780009b 67800f00 13050000  ........g.......
 2850 2320a600 97100000 9380c070 3701aa00  # .........p7...
 2860 1301a10a 23a02000 03af0000 b70eaa00  ....#. .........
 2870 938eae0a 93012000 6304df01 6fd01f9a  ...... .c...o...
 2880 97e0ffff e7800097 97100000 9380806d  ...............m
 2890 37b100aa 130101a0 23a22000 03af4000  7.......#. ...@.
 28a0 b7be00aa 938e0ea0 93013000 6304df01  ..........0.c...
 28b0 6fd0df96 97e0ffff e780c093 97100000  o...............
 28c0 9380406a 3711a00a 130101aa 23a42000  ..@j7.......#. .
 28d0 03af8000 b71ea00a 938e0eaa 93014000  ..............@.
 28e0 6304df01 6fd09f93 97e0ffff e7808090  c...o...........
 28f0 97100000 93800067 37a10aa0 1301a100  .......g7.......
 2900 23a62000 03afc000 b7ae0aa0 938eae00  #. .............
 2910 93015000 6304df01 6fd05f90 97e0ffff  ..P.c...o._.....
 2920 e780408d 97100000 93808065 3701aa00  ..@........e7...
 2930 1301a10a 23aa20fe 03af40ff b70eaa00  ....#. ...@.....
 2940 938eae0a 93016000 6304df01 6fd01f8d  ......`.c...o...
 2950 97e0ffff e780008a 97100000 93804062  ..............@b
 2960 37b100aa 130101a0 23ac20fe 03af80ff  7.......#. .....
 2970 b7be00aa 938e0ea0 93017000 6304df01  ..........p.c...
 2980 6fd0df89 97e0ffff e780c086 97100000  o...............
 2990 9380005f 3711a00a 130101aa 23ae20fe  ..._7.......#. .
 29a0 03afc0ff b71ea00a 938e0eaa 93018000  ................
 29b0 6304df01 6fd09f86 97e0ffff e7808083  c...o...........
 29c0 97100000 9380c05b 37a10aa0 1301a100  .......[7.......
 29d0 23a02000 03af0000 b7ae0aa0 938eae00  #. .............
 29e0 93019000 6304df01 6fd05f83 97e0ffff  ....c...o._.....
 29f0 e7804080 97100000 9380c058 37513412  ..@........X7Q4.
 2a00 13018167 138200fe 23202202 83a20000  ...g....# ".....
 2a10 b75e3412 938e8e67 9301a000 6384d201  .^4....g....c...
 2a20 6fd0cfff 97d0ffff e780c07c 67800f00  o..........|g...
 2a30 13050000 2320a600 93012000 93000000  ....# .... .....
 2a40 13010000 63882000 63043000 6fd00ffd  ....c. .c.0.o...
 2a50 63183000 e38e20fe 63043000 6fd00ffc  c.0... .c.0.o...
 2a60 97d0ffff e7800079 93013000 93001000  .......y..0.....
 2a70 13011000 63882000 63043000 6fd00ffa  ....c. .c.0.o...
 2a80 63183000 e38e20fe 63043000 6fd00ff9  c.0... .c.0.o...
 2a90 97d0ffff e7800076 93014000 9300f0ff  .......v..@.....
 2aa0 1301f0ff 63882000 63043000 6fd00ff7  ....c. .c.0.o...
 2ab0 63183000 e38e20fe 63043000 6fd00ff6  c.0... .c.0.o...
 2ac0 97d0ffff e7800073 93015000 93000000  .......s..P.....
 2ad0 13011000 63842000 63163000 63043000  ....c. .c.0.c.0.
 2ae0 6fd0cff3 e38c20fe 97d0ffff e7808070  o..... ........p
 2af0 93016000 93001000 13010000 63842000  ..`.........c. .
 2b00 63163000 63043000 6fd04ff1 e38c20fe  c.0.c.0.o.O... .
 2b10 97d0ffff e780006e 93017000 9300f0ff  .......n..p.....
 2b20 13011000 63842000 63163000 63043000  ....c. .c.0.c.0.
 2b30 6fd0cfee e38c20fe 97d0ffff e780806b  o..... ........k
 2b40 93018000 93001000 1301f0ff 63842000  ............c. .
 2b50 63163000 63043000 6fd04fec e38c20fe  c.0.c.0.o.O... .
 2b60 97d0ffff e7800069 67800f00 13050000  .......ig.......
 2b70 2320a600 93012000 93000000 13011000  # .... .........
 2b80 63982000 63043000 6fd04fe9 63183000  c. .c.0.o.O.c.0.
 2b90 e39e20fe 63043000 6fd04fe8 97d0ffff  .. .c.0.o.O.....
 2ba0 e7804065 93013000 93001000 13010000  ..@e..0.........
 2bb0 63982000 63043000 6fd04fe6 63183000  c. .c.0.o.O.c.0.
 2bc0 e39e20fe 63043000 6fd04fe5 97d0ffff  .. .c.0.o.O.....
 2bd0 e7804062 93014000 9300f0ff 13011000  ..@b..@.........
 2be0 63982000 63043000 6fd04fe3 63183000  c. .c.0.o.O.c.0.
 2bf0 e39e20fe 63043000 6fd04fe2 97d0ffff  .. .c.0.o.O.....
 2c00 e780405f 93015000 93001000 1301f0ff  ..@_..P.........
 2c10 63982000 63043000 6fd04fe0 63183000  c. .c.0.o.O.c.0.
 2c20 e39e20fe 63043000 6fd04fdf 97d0ffff  .. .c.0.o.O.....
 2c30 e780405c 93016000 93000000 13010000  ..@\..`.........
 2c40 63942000 63163000 63043000 6fd00fdd  c. .c.0.c.0.o...
 2c50 e39c20fe 97d0ffff e780c059 93017000  .. ........Y..p.
 2c60 93001000 13011000 63942000 63163000  ........c. .c.0.
 2c70 63043000 6fd08fda e39c20fe 97d0ffff  c.0.o..... .....
 2c80 e7804057 93018000 9300f0ff 1301f0ff  ..@W............
 2c90 63942000 63163000 63043000 6fd00fd8  c. .c.0.c.0.o...
 2ca0 e39c20fe 97d0ffff e780c054 67800f00  .. ........Tg...
 2cb0 13050000 2320a600 93012000 93000000  ....# .... .....
 2cc0 13011000 63c82000 63043000 6fd00fd5  ....c. .c.0.o...
 2cd0 63183000 e3ce20fe 63043000 6fd00fd4  c.0... .c.0.o...
 2ce0 97d0ffff e7800051 93013000 9300f0ff  .......Q..0.....
 2cf0 13011000 63c82000 63043000 6fd00fd2  ....c. .c.0.o...
 2d00 63183000 e3ce20fe 63043000 6fd00fd1  c.0... .c.0.o...
 2d10 97d0ffff e780004e 93014000 9300e0ff  .......N..@.....
 2d20 1301f0ff 63c82000 63043000 6fd00fcf  ....c. .c.0.o...
 2d30 63183000 e3ce20fe 63043000 6fd00fce  c.0... .c.0.o...
 2d40 97d0ffff e780004b 93015000 93001000  .......K..P.....
 2d50 13010000 63c42000 63163000 63043000  ....c. .c.0.c.0.
 2d60 6fd0cfcb e3cc20fe 97d0ffff e7808048  o..... ........H
 2d70 93016000 93001000 1301f0ff 63c42000  ..`.........c. .
 2d80 63163000 63043000 6fd04fc9 e3cc20fe  c.0.c.0.o.O... .
 2d90 97d0ffff e7800046 93017000 9300f0ff  .......F..p.....
 2da0 1301e0ff 63c42000 63163000 63043000  ....c. .c.0.c.0.
 2db0 6fd0cfc6 e3cc20fe 97d0ffff e7808043  o..... ........C
 2dc0 93018000 93001000 1301e0ff 63c42000  ............c. .
 2dd0 63163000 63043000 6fd04fc4 e3cc20fe  c.0.c.0.o.O... .
 2de0 97d0ffff e7800041 67800f00 13050000  .......Ag.......
 2df0 2320a600 93012000 93000000 13010000  # .... .........
 2e00 63d82000 63043000 6fd04fc1 63183000  c. .c.0.o.O.c.0.
 2e10 e3de20fe 63043000 6fd04fc0 97d0ffff  .. .c.0.o.O.....
 2e20 e780403d 93013000 93001000 13011000  ..@=..0.........
 2e30 63d82000 63043000 6fd04fbe 63183000  c. .c.0.o.O.c.0.
 2e40 e3de20fe 63043000 6fd04fbd 97d0ffff  .. .c.0.o.O.....
 2e50 e780403a 93014000 9300f0ff 1301f0ff  ..@:..@.........
 2e60 63d82000 63043000 6fd04fbb 63183000  c. .c.0.o.O.c.0.
 2e70 e3de20fe 63043000 6fd04fba 97d0ffff  .. .c.0.o.O.....
 2e80 e7804037 93015000 93001000 13010000  ..@7..P.........
 2e90 63d82000 63043000 6fd04fb8 63183000  c. .c.0.o.O.c.0.
 2ea0 e3de20fe 63043000 6fd04fb7 97d0ffff  .. .c.0.o.O.....
 2eb0 e7804034 93016000 93001000 1301f0ff  ..@4..`.........
 2ec0 63d82000 63043000 6fd04fb5 63183000  c. .c.0.o.O.c.0.
 2ed0 e3de20fe 63043000 6fd04fb4 97d0ffff  .. .c.0.o.O.....
 2ee0 e7804031 93017000 9300f0ff 1301e0ff  ..@1..p.........
 2ef0 63d82000 63043000 6fd04fb2 63183000  c. .c.0.o.O.c.0.
 2f00 e3de20fe 63043000 6fd04fb1 97d0ffff  .. .c.0.o.O.....
 2f10 e780402e 93018000 93000000 13011000  ..@.............
 2f20 63d42000 63163000 63043000 6fd00faf  c. .c.0.c.0.o...
 2f30 e3dc20fe 97d0ffff e780c02b 93019000  .. ........+....
 2f40 9300f0ff 13011000 63d42000 63163000  ........c. .c.0.
 2f50 63043000 6fd08fac e3dc20fe 97d0ffff  c.0.o..... .....
 2f60 e7804029 9301a000 9300e0ff 1301f0ff  ..@)............
 2f70 63d42000 63163000 63043000 6fd00faa  c. .c.0.c.0.o...
 2f80 e3dc20fe 97d0ffff e780c026 9301b000  .. ........&....
 2f90 9300e0ff 13011000 63d42000 63163000  ........c. .c.0.
 2fa0 63043000 6fd08fa7 e3dc20fe 97d0ffff  c.0.o..... .....
 2fb0 e7804024 67800f00 13050000 2320a600  ..@$g.......# ..
 2fc0 93012000 93000000 13011000 63e82000  .. .........c. .
 2fd0 63043000 6fd08fa4 63183000 e3ee20fe  c.0.o...c.0... .
 2fe0 63043000 6fd08fa3 97d0ffff e7808020  c.0.o.......... 
 2ff0 93013000 9300e0ff 1301f0ff 63e82000  ..0.........c. .
 3000 63043000 6fd08fa1 63183000 e3ee20fe  c.0.o...c.0... .
 3010 63043000 6fd08fa0 97d0ffff e780801d  c.0.o...........
 3020 93014000 93000000 1301f0ff 63e82000  ..@.........c. .
 3030 63043000 6fd08f9e 63183000 e3ee20fe  c.0.o...c.0... .
 3040 63043000 6fd08f9d 97d0ffff e780801a  c.0.o...........
 3050 93015000 93001000 13010000 63e42000  ..P.........c. .
 3060 63163000 63043000 6fd04f9b e3ec20fe  c.0.c.0.o.O... .
 3070 97d0ffff e7800018 93016000 9300f0ff  ..........`.....
 3080 1301e0ff 63e42000 63163000 63043000  ....c. .c.0.c.0.
 3090 6fd0cf98 e3ec20fe 97d0ffff e7808015  o..... .........
 30a0 93017000 9300f0ff 13010000 63e42000  ..p.........c. .
 30b0 63163000 63043000 6fd04f96 e3ec20fe  c.0.c.0.o.O... .
 30c0 97d0ffff e7800013 93018000 b7000080  ................
 30d0 37010080 1301f1ff 63e42000 63163000  7.......c. .c.0.
 30e0 63043000 6fd08f93 e3ec20fe 97d0ffff  c.0.o..... .....
 30f0 e7804010 67800f00 13050000 2320a600  ..@.g.......# ..
 3100 93012000 93000000 13010000 63f82000  .. .........c. .
 3110 63043000 6fd08f90 63183000 e3fe20fe  c.0.o...c.0... .
 3120 63043000 6fd08f8f 97d0ffff e780800c  c.0.o...........
 3130 93013000 93001000 13011000 63f82000  ..0.........c. .
 3140 63043000 6fd08f8d 63183000 e3fe20fe  c.0.o...c.0... .
 3150 63043000 6fd08f8c 97d0ffff e7808009  c.0.o...........
 3160 93014000 9300f0ff 1301f0ff 63f82000  ..@.........c. .
 3170 63043000 6fd08f8a 63183000 e3fe20fe  c.0.o...c.0... .
 3180 63043000 6fd08f89 97d0ffff e7808006  c.0.o...........
 3190 93015000 93001000 13010000 63f82000  ..P.........c. .
 31a0 63043000 6fd08f87 63183000 e3fe20fe  c.0.o...c.0... .
 31b0 63043000 6fd08f86 97d0ffff e7808003  c.0.o...........
 31c0 93016000 9300f0ff 1301e0ff 63f82000  ..`.........c. .
 31d0 63043000 6fd08f84 63183000 e3fe20fe  c.0.o...c.0... .
 31e0 63043000 6fd08f83 97d0ffff e7808000  c.0.o...........
 31f0 93017000 9300f0ff 13010000 63f82000  ..p.........c. .
 3200 63043000 6fd08f81 63183000 e3fe20fe  c.0.o...c.0... .
 3210 63043000 6fd08f80 97d0ffff e78080fd  c.0.o...........
 3220 93018000 93000000 13011000 63f42000  ............c. .
 3230 63163000 63043000 6fc05ffe e3fc20fe  c.0.c.0.o._... .
 3240 97d0ffff e78000fb 93019000 9300e0ff  ................
 3250 1301f0ff 63f42000 63163000 63043000  ....c. .c.0.c.0.
 3260 6fc0dffb e3fc20fe 97d0ffff e78080f8  o..... .........
 3270 9301a000 93000000 1301f0ff 63f42000  ............c. .
 3280 63163000 63043000 6fc05ff9 e3fc20fe  c.0.c.0.o._... .
 3290 97d0ffff e78000f6 9301b000 b7000080  ................
 32a0 9380f0ff 37010080 63f42000 63163000  ....7...c. .c.0.
 32b0 63043000 6fc09ff6 e3fc20fe 97d0ffff  c.0.o..... .....
 32c0 e78040f3 67800f00 13050000 2320a600  ..@.g.......# ..
 32d0 172e0000 130ece71 ef0d4000 330ebe41  .......q..@.3..A
 32e0 b72e0000 938e0e71 93012000 6304de01  .......q.. .c...
 32f0 6fc0dff2 97d0ffff e780c0ef 13000000  o...............
 3300 17eeffff 130ece8f ef0d4000 330ebe41  ..........@.3..A
 3310 b7eeffff 938e0e8f 93013000 6304de01  ..........0.c...
 3320 6fc0dfef 97d0ffff e780c0ec 67800f00  o...........g...
 3330 13050000 2320a600 b7000000 930e0000  ....# ..........
 3340 93012000 6384d001 6fc05fed 97d0ffff  .. .c...o._.....
 3350 e78040ea b7f0ffff 93d01040 930e0080  ..@........@....
 3360 93013000 6384d001 6fc05feb 97d0ffff  ..0.c...o._.....
 3370 e78040e8 b7f0ff7f 93d04041 930ef07f  ..@.......@A....
 3380 93014000 6384d001 6fc05fe9 97d0ffff  ..@.c...o._.....
 3390 e78040e6 b7000080 93d04041 930e0080  ..@.......@A....
 33a0 93015000 6384d001 6fc05fe7 97d0ffff  ..P.c...o._.....
 33b0 e78040e4 37000080 930e0000 93016000  ..@.7.........`.
 33c0 6304d001 6fc09fe5 97d0ffff e78080e2  c...o...........
 33d0 67800f00 13050000 2320a600 93012000  g.......# .... .
 33e0 93000000 6f020001 13000000 13000000  ....o...........
 33f0 6fc0dfe2 17010000 130141ff 63044100  o.........A.c.A.
 3400 6fc0dfe1 97d0ffff e780c0de 93001000  o...............
 3410 6f004001 93801000 93801000 93801000  o.@.............
 3420 93801000 93801000 93801000 930e3000  ..............0.
 3430 93013000 6384d001 6fc05fde 97d0ffff  ..0.c...o._.....
 3440 e78040db 67800f00 13050000 2320a600  ..@.g.......# ..
 3450 93012000 93020000 17030000 13030301  .. .............
 3460 e7020300 6fc09fdb 17030000 1303c3ff  ....o...........
 3470 63846200 6fc09fda 97d0ffff e78080d7  c.b.o...........
 3480 93014000 13020000 17030000 13034301  ..@...........C.
 3490 e7090300 63043000 6fc05fd8 13021200  ....c.0.o._.....
 34a0 93022000 e31252fe 97d0ffff e78080d4  .. ...R.........
 34b0 93015000 13020000 17030000 13038301  ..P.............
 34c0 13000000 e7090300 63043000 6fc01fd5  ........c.0.o...
 34d0 13021200 93022000 e31052fe 97d0ffff  ...... ...R.....
 34e0 e78040d1 93016000 13020000 17030000  ..@...`.........
 34f0 1303c301 13000000 13000000 e7090300  ................
 3500 63043000 6fc09fd1 13021200 93022000  c.0.o......... .
 3510 e31e52fc 97d0ffff e780c0cd 67800f00  ..R.........g...
 3520 13050000 2320a600 97100000 9380c0a5  ....# ..........
 3530 039f0000 930ef00f 93012000 6304df01  .......... .c...
 3540 6fc0dfcd 97d0ffff e780c0ca 97100000  o...............
 3550 938080a3 039f2000 930e00f0 93013000  ...... .......0.
 3560 6304df01 6fc09fcb 97d0ffff e78080c8  c...o...........
 3570 97100000 938040a1 039f4000 b71e0000  ......@...@.....
 3580 938e0eff 93014000 6304df01 6fc01fc9  ......@.c...o...
 3590 97d0ffff e78000c6 97100000 9380c09e  ................
 35a0 039f6000 b7feffff 938efe00 93015000  ..`...........P.
 35b0 6304df01 6fc09fc6 97d0ffff e78080c3  c...o...........
 35c0 97100000 9380a09c 039fa0ff 930ef00f  ................
 35d0 93016000 6304df01 6fc05fc4 97d0ffff  ..`.c...o._.....
 35e0 e78040c1 97100000 9380609a 039fc0ff  ..@.......`.....
 35f0 930e00f0 93017000 6304df01 6fc01fc2  ......p.c...o...
 3600 97d0ffff e78000bf 97100000 93802098  .............. .
 3610 039fe0ff b71e0000 938e0eff 93018000  ................
 3620 6304df01 6fc09fbf 97d0ffff e78080bc  c...o...........
 3630 97100000 9380a095 039f0000 b7feffff  ................
 3640 938efe00 93019000 6304df01 6fc01fbd  ........c...o...
 3650 97d0ffff e78000ba 97100000 9380c092  ................
 3660 938000fe 83920002 930ef00f 9301a000  ................
 3670 6384d201 6fc09fba 97d0ffff e78080b7  c...o...........
 3680 97100000 93804090 9380b0ff 83927000  ......@.......p.
 3690 930e00f0 9301b000 6384d201 6fc01fb8  ........c...o...
 36a0 97d0ffff e78000b5 67800f00 13050000  ........g.......
 36b0 2320a600 13151500 97100000 9380408d  # ............@.
 36c0 038f0000 930ef0ff 93012000 6304df01  .......... .c...
 36d0 6fc0dfb4 97d0ffff e780c0b1 97100000  o...............
 36e0 9380008b 038f1000 930e0000 93013000  ..............0.
 36f0 6304df01 6fc09fb2 97d0ffff e78080af  c...o...........
 3700 97100000 9380c088 038f2000 930e00ff  .......... .....
 3710 93014000 6304df01 6fc05fb0 97d0ffff  ..@.c...o._.....
 3720 e78040ad 97100000 93808086 038f3000  ..@...........0.
 3730 930ef000 93015000 6304df01 6fc01fae  ......P.c...o...
 3740 97d0ffff e78000ab 97100000 93807084  ..............p.
 3750 038fd0ff 930ef0ff 93016000 6304df01  ..........`.c...
 3760 6fc0dfab 97d0ffff e780c0a8 97100000  o...............
 3770 93803082 038fe0ff 930e0000 93017000  ..0...........p.
 3780 6304df01 6fc09fa9 97d0ffff e78080a6  c...o...........
 3790 97000000 9380f07f 038ff0ff 930e00ff  ................
 37a0 93018000 6304df01 6fc05fa7 97d0ffff  ....c...o._.....
 37b0 e78040a4 97000000 9380b07d 038f0000  ..@........}....
 37c0 930ef000 93019000 6304df01 6fc01fa5  ........c...o...
 37d0 97d0ffff e78000a2 97000000 9380407b  ..............@{
 37e0 938000fe 83820002 930ef0ff 9301a000  ................
 37f0 6384d201 6fc09fa2 97d0ffff e780809f  c...o...........
 3800 97000000 9380c078 9380a0ff 83827000  .......x......p.
 3810 930e0000 9301b000 6384d201 6fc01fa0  ........c...o...
 3820 97d0ffff e780009d 67800f00 13050000  ........g.......
 3830 2320a600 13151500 97000000 93804075  # ............@u
 3840 03cf0000 930ef00f 93012000 6304df01  .......... .c...
 3850 6fc0df9c 97d0ffff e780c099 97000000  o...............
 3860 93800073 03cf1000 930e0000 93013000  ...s..........0.
 3870 6304df01 6fc09f9a 97d0ffff e7808097  c...o...........
 3880 97000000 9380c070 03cf2000 930e000f  .......p.. .....
 3890 93014000 6304df01 6fc05f98 97d0ffff  ..@.c...o._.....
 38a0 e7804095 97000000 9380806e 03cf3000  ..@........n..0.
 38b0 930ef000 93015000 6304df01 6fc01f96  ......P.c...o...
 38c0 97d0ffff e7800093 97000000 9380706c  ..............pl
 38d0 03cfd0ff 930ef00f 93016000 6304df01  ..........`.c...
 38e0 6fc0df93 97d0ffff e780c090 97000000  o...............
 38f0 9380306a 03cfe0ff 930e0000 93017000  ..0j..........p.
 3900 6304df01 6fc09f91 97d0ffff e780808e  c...o...........
 3910 97000000 9380f067 03cff0ff 930e000f  .......g........
 3920 93018000 6304df01 6fc05f8f 97d0ffff  ....c...o._.....
 3930 e780408c 97000000 9380b065 03cf0000  ..@........e....
 3940 930ef000 93019000 6304df01 6fc01f8d  ........c...o...
 3950 97d0ffff e780008a 97000000 93804063  ..............@c
 3960 938000fe 83c20002 930ef00f 9301a000  ................
 3970 6384d201 6fc09f8a 97d0ffff e7808087  c...o...........
 3980 97000000 9380c060 9380a0ff 83c27000  .......`......p.
 3990 930e0000 9301b000 6384d201 6fc01f88  ........c...o...
 39a0 97d0ffff e7800085 67800f00 13050000  ........g.......
 39b0 2320a600 13151500 97000000 9380c05c  # .............\
 39c0 03df0000 930ef00f 93012000 6304df01  .......... .c...
 39d0 6fc0df84 97d0ffff e780c081 97000000  o...............
 39e0 9380805a 03df2000 b70e0100 938e0ef0  ...Z.. .........
 39f0 93013000 6304df01 6fc05f82 97c0ffff  ..0.c...o._.....
 3a00 e780407f 97000000 93800058 03df4000  ..@........X..@.
 3a10 b71e0000 938e0eff 93014000 6304df01  ..........@.c...
 3a20 6fc0cfff 97c0ffff e780c07c 97000000  o..........|....
 3a30 93808055 03df6000 b7fe0000 938efe00  ...U..`.........
 3a40 93015000 6304df01 6fc04ffd 97c0ffff  ..P.c...o.O.....
 3a50 e780407a 97000000 93806053 03dfa0ff  ..@z......`S....
 3a60 930ef00f 93016000 6304df01 6fc00ffb  ......`.c...o...
 3a70 97c0ffff e7800078 97000000 93802051  .......x...... Q
 3a80 03dfc0ff b70e0100 938e0ef0 93017000  ..............p.
 3a90 6304df01 6fc08ff8 97c0ffff e7808075  c...o..........u
 3aa0 97000000 9380a04e 03dfe0ff b71e0000  .......N........
 3ab0 938e0eff 93018000 6304df01 6fc00ff6  ........c...o...
 3ac0 97c0ffff e7800073 97000000 9380204c  .......s...... L
 3ad0 03df0000 b7fe0000 938efe00 93019000  ................
 3ae0 6304df01 6fc08ff3 97c0ffff e7808070  c...o..........p
 3af0 97000000 93804049 938000fe 83d20002  ......@I........
 3b00 930ef00f 9301a000 6384d201 6fc00ff1  ........c...o...
 3b10 97c0ffff e780006e 97000000 9380c046  .......n.......F
 3b20 9380b0ff 83d27000 b70e0100 938e0ef0  ......p.........
 3b30 9301b000 6384d201 6fc04fee 97c0ffff  ....c...o.O.....
 3b40 e780406b 67800f00 13050000 2320a600  ..@kg.......# ..
 3b50 13151500 97000000 93806044 1301a00a  ..........`D....
 3b60 23902000 039f0000 930ea00a 93012000  #. ........... .
 3b70 6304df01 6fc08fea 97c0ffff e7808067  c...o..........g
 3b80 97000000 9380a041 37b1ffff 130101a0  .......A7.......
 3b90 23912000 039f2000 b7beffff 938e0ea0  #. ... .........
 3ba0 93013000 6304df01 6fc04fe7 97c0ffff  ..0.c...o.O.....
 3bb0 e7804064 97000000 9380603e 3711efbe  ..@d......`>7...
 3bc0 130101aa 23922000 039f4000 b71e0000  ....#. ...@.....
 3bd0 938e0eaa 93014000 6304df01 6fc00fe4  ......@.c...o...
 3be0 97c0ffff e7800061 97000000 9380203b  .......a...... ;
 3bf0 37a1ffff 1301a100 23932000 039f6000  7.......#. ...`.
 3c00 b7aeffff 938eae00 93015000 6304df01  ..........P.c...
 3c10 6fc0cfe0 97c0ffff e780c05d 97000000  o..........]....
 3c20 9380c038 1301a00a 239d20fe 039fa0ff  ...8....#. .....
 3c30 930ea00a 93016000 6304df01 6fc00fde  ......`.c...o...
 3c40 97c0ffff e780005b 97000000 93800036  .......[.......6
 3c50 37b1ffff 130101a0 239e20fe 039fc0ff  7.......#. .....
 3c60 b7beffff 938e0ea0 93017000 6304df01  ..........p.c...
 3c70 6fc0cfda 97c0ffff e780c057 97000000  o..........W....
 3c80 9380c032 37110000 130101aa 239f20fe  ...27.......#. .
 3c90 039fe0ff b71e0000 938e0eaa 93018000  ................
 3ca0 6304df01 6fc08fd7 97c0ffff e7808054  c...o..........T
 3cb0 97000000 9380802f 37a1ffff 1301a100  ......./7.......
 3cc0 23902000 039f0000 b7aeffff 938eae00  #. .............
 3cd0 93019000 6304df01 6fc04fd4 97c0ffff  ....c...o.O.....
 3ce0 e7804051 97000000 9380602c 37513412  ..@Q......`,7Q4.
 3cf0 13018167 138200fe 23102202 83920000  ...g....#.".....
 3d00 b75e0000 938e8e67 9301a000 6384d201  .^.....g....c...
 3d10 6fc0cfd0 97c0ffff e780c04d 97000000  o..........M....
 3d20 9380e028 37310000 13018109 9380b0ff  ...(71..........
 3d30 a3932000 17020000 13028227 83120200  .. ........'....
 3d40 b73e0000 938e8e09 9301b000 6384d201  .>..........c...
 3d50 6fc0cfcc 97c0ffff e780c049 67800f00  o..........Ig...
 3d60 13050000 2320a600 13151500 97000000  ....# ..........
 3d70 93804022 1301a0fa 23802000 038f0000  ..@"....#. .....
 3d80 930ea0fa 93012000 6304df01 6fc00fc9  ...... .c...o...
 3d90 97c0ffff e7800046 97000000 9380801f  .......F........
 3da0 13010000 a3802000 038f1000 930e0000  ...... .........
 3db0 93013000 6304df01 6fc04fc6 97c0ffff  ..0.c...o.O.....
 3dc0 e7804043 97000000 9380c01c 37f1ffff  ..@C........7...
 3dd0 130101fa 23812000 038f2000 930e00fa  ....#. ... .....
 3de0 93014000 6304df01 6fc04fc3 97c0ffff  ..@.c...o.O.....
 3df0 e7804040 97000000 9380c019 1301a000  ..@@............
 3e00 a3812000 038f3000 930ea000 93015000  .. ...0.......P.
 3e10 6304df01 6fc08fc0 97c0ffff e780803d  c...o..........=
 3e20 97000000 93807017 1301a0fa a38e20fe  ......p....... .
 3e30 038fd0ff 930ea0fa 93016000 6304df01  ..........`.c...
 3e40 6fc0cfbd 97c0ffff e780c03a 97000000  o..........:....
 3e50 9380b014 13010000 238f20fe 038fe0ff  ........#. .....
 3e60 930e0000 93017000 6304df01 6fc00fbb  ......p.c...o...
 3e70 97c0ffff e7800038 97000000 9380f011  .......8........
 3e80 130100fa a38f20fe 038ff0ff 930e00fa  ...... .........
 3e90 93018000 6304df01 6fc04fb8 97c0ffff  ....c...o.O.....
 3ea0 e7804035 97000000 9380300f 1301a000  ..@5......0.....
 3eb0 23802000 038f0000 930ea000 93019000  #. .............
 3ec0 6304df01 6fc08fb5 97c0ffff e7808032  c...o..........2
 3ed0 97000000 9380800c 37513412 13018167  ........7Q4....g
 3ee0 138200fe 23002202 83820000 930e8007  ....#.".........
 3ef0 9301a000 6384d201 6fc04fb2 97c0ffff  ....c...o.O.....
 3f00 e780402f 97000000 93804009 37310000  ..@/......@.71..
 3f10 13018109 9380a0ff a3832000 17020000  .......... .....
 3f20 1302d207 83020200 930e80f9 9301b000  ................
 3f30 6384d201 6fc08fae 97c0ffff e780802b  c...o..........+
 3f40 67800f00                             g...            
Contents of section .data:
 3f50 ff00ff00 00ff00ff f00ff00f 0ff00ff0  ................
 3f60 efbeadde efbeadde efbeadde efbeadde  ................
 3f70 efbeadde efbeadde efbeadde efbeadde  ................
 3f80 efbeadde ff0000ff f00f0ff0 ff00f00f  ................
 3f90 efefefef efefefef efefefbe efbeefbe  ................
 3fa0 efbeefbe efbeefbe efbeefbe efbe0000  ................
Contents of section .riscv.attributes:
 0000 41190000 00726973 63760001 0f000000  A....riscv......
 0010 05727633 32693270 3000               .rv32i2p0.      

Disassembly of section .text:

00000000 <main>:
       0:	11000837          	lui	a6,0x11000
       4:	110c05b7          	lui	a1,0x110c0
       8:	11080637          	lui	a2,0x11080

0000000c <loop>:
       c:	fff00713          	li	a4,-1
      10:	00000097          	auipc	ra,0x0
      14:	1c8080e7          	jalr	456(ra) # 1d8 <end>
      18:	23800fef          	jal	t6,250 <add_test>
      1c:	00000097          	auipc	ra,0x0
      20:	1bc080e7          	jalr	444(ra) # 1d8 <end>
      24:	48800fef          	jal	t6,4ac <sub_test>
      28:	00000097          	auipc	ra,0x0
      2c:	1b0080e7          	jalr	432(ra) # 1d8 <end>
      30:	6b000fef          	jal	t6,6e0 <and_test>
      34:	00000097          	auipc	ra,0x0
      38:	1a4080e7          	jalr	420(ra) # 1d8 <end>
      3c:	7d800fef          	jal	t6,814 <or_test>
      40:	00000097          	auipc	ra,0x0
      44:	198080e7          	jalr	408(ra) # 1d8 <end>
      48:	10500fef          	jal	t6,94c <xor_test>
      4c:	00000097          	auipc	ra,0x0
      50:	18c080e7          	jalr	396(ra) # 1d8 <end>
      54:	22d00fef          	jal	t6,a80 <sll_test>
      58:	00000097          	auipc	ra,0x0
      5c:	180080e7          	jalr	384(ra) # 1d8 <end>
      60:	4c900fef          	jal	t6,d28 <srl_test>
      64:	00000097          	auipc	ra,0x0
      68:	174080e7          	jalr	372(ra) # 1d8 <end>
      6c:	72d00fef          	jal	t6,f98 <sra_test>
      70:	00000097          	auipc	ra,0x0
      74:	168080e7          	jalr	360(ra) # 1d8 <end>
      78:	22801fef          	jal	t6,12a0 <slt_test>
      7c:	00000097          	auipc	ra,0x0
      80:	15c080e7          	jalr	348(ra) # 1d8 <end>
      84:	48001fef          	jal	t6,1504 <sltu_test>
      88:	00000097          	auipc	ra,0x0
      8c:	150080e7          	jalr	336(ra) # 1d8 <end>
      90:	6d801fef          	jal	t6,1768 <addi_test>
      94:	00000097          	auipc	ra,0x0
      98:	144080e7          	jalr	324(ra) # 1d8 <end>
      9c:	0fd01fef          	jal	t6,1998 <andi_test>
      a0:	00000097          	auipc	ra,0x0
      a4:	138080e7          	jalr	312(ra) # 1d8 <end>
      a8:	1b501fef          	jal	t6,1a5c <ori_test>
      ac:	00000097          	auipc	ra,0x0
      b0:	12c080e7          	jalr	300(ra) # 1d8 <end>
      b4:	27901fef          	jal	t6,1b2c <xori_test>
      b8:	00000097          	auipc	ra,0x0
      bc:	120080e7          	jalr	288(ra) # 1d8 <end>
      c0:	34101fef          	jal	t6,1c00 <slli_test>
      c4:	00000097          	auipc	ra,0x0
      c8:	114080e7          	jalr	276(ra) # 1d8 <end>
      cc:	54101fef          	jal	t6,1e0c <srli_test>
      d0:	00000097          	auipc	ra,0x0
      d4:	108080e7          	jalr	264(ra) # 1d8 <end>
      d8:	77501fef          	jal	t6,204c <srai_test>
      dc:	00000097          	auipc	ra,0x0
      e0:	0fc080e7          	jalr	252(ra) # 1d8 <end>
      e4:	1c002fef          	jal	t6,22a4 <sltiu_test>
      e8:	00000097          	auipc	ra,0x0
      ec:	0f0080e7          	jalr	240(ra) # 1d8 <end>
      f0:	3cc02fef          	jal	t6,24bc <slti_test>
      f4:	00000097          	auipc	ra,0x0
      f8:	0e4080e7          	jalr	228(ra) # 1d8 <end>
      fc:	5d802fef          	jal	t6,26d4 <lw_test>
     100:	00000097          	auipc	ra,0x0
     104:	0d8080e7          	jalr	216(ra) # 1d8 <end>
     108:	74402fef          	jal	t6,284c <sw_test>
     10c:	00000097          	auipc	ra,0x0
     110:	0cc080e7          	jalr	204(ra) # 1d8 <end>
     114:	11d02fef          	jal	t6,2a30 <beq_test>
     118:	00000097          	auipc	ra,0x0
     11c:	0c0080e7          	jalr	192(ra) # 1d8 <end>
     120:	24d02fef          	jal	t6,2b6c <bne_test>
     124:	00000097          	auipc	ra,0x0
     128:	0b4080e7          	jalr	180(ra) # 1d8 <end>
     12c:	38502fef          	jal	t6,2cb0 <blt_test>
     130:	00000097          	auipc	ra,0x0
     134:	0a8080e7          	jalr	168(ra) # 1d8 <end>
     138:	4b502fef          	jal	t6,2dec <bge_test>
     13c:	00000097          	auipc	ra,0x0
     140:	09c080e7          	jalr	156(ra) # 1d8 <end>
     144:	67502fef          	jal	t6,2fb8 <bltu_test>
     148:	00000097          	auipc	ra,0x0
     14c:	090080e7          	jalr	144(ra) # 1d8 <end>
     150:	7a902fef          	jal	t6,30f8 <bgeu_test>
     154:	00000097          	auipc	ra,0x0
     158:	084080e7          	jalr	132(ra) # 1d8 <end>
     15c:	16c03fef          	jal	t6,32c8 <auipc_test>
     160:	00000097          	auipc	ra,0x0
     164:	078080e7          	jalr	120(ra) # 1d8 <end>
     168:	1c803fef          	jal	t6,3330 <lui_test>
     16c:	00000097          	auipc	ra,0x0
     170:	06c080e7          	jalr	108(ra) # 1d8 <end>
     174:	26003fef          	jal	t6,33d4 <jal_test>
     178:	00000097          	auipc	ra,0x0
     17c:	060080e7          	jalr	96(ra) # 1d8 <end>
     180:	2c803fef          	jal	t6,3448 <jalr_test>
     184:	00000097          	auipc	ra,0x0
     188:	054080e7          	jalr	84(ra) # 1d8 <end>
     18c:	39403fef          	jal	t6,3520 <lh_test>
     190:	00000097          	auipc	ra,0x0
     194:	048080e7          	jalr	72(ra) # 1d8 <end>
     198:	51403fef          	jal	t6,36ac <lb_test>
     19c:	00000097          	auipc	ra,0x0
     1a0:	03c080e7          	jalr	60(ra) # 1d8 <end>
     1a4:	00903fef          	jal	t6,39ac <lhu_test>
     1a8:	00000097          	auipc	ra,0x0
     1ac:	030080e7          	jalr	48(ra) # 1d8 <end>
     1b0:	67c03fef          	jal	t6,382c <lbu_test>
     1b4:	00000097          	auipc	ra,0x0
     1b8:	024080e7          	jalr	36(ra) # 1d8 <end>
     1bc:	18d03fef          	jal	t6,3b48 <sh_test>
     1c0:	00000097          	auipc	ra,0x0
     1c4:	018080e7          	jalr	24(ra) # 1d8 <end>
     1c8:	39903fef          	jal	t6,3d60 <sb_test>
     1cc:	00000097          	auipc	ra,0x0
     1d0:	00c080e7          	jalr	12(ra) # 1d8 <end>
     1d4:	e39ff06f          	j	c <loop>

000001d8 <end>:
     1d8:	00082683          	lw	a3,0(a6) # 11000000 <SWITCHES>
     1dc:	0016f693          	andi	a3,a3,1
     1e0:	fe069ce3          	bnez	a3,1d8 <end>
     1e4:	00170713          	addi	a4,a4,1
     1e8:	00e5a023          	sw	a4,0(a1) # 110c0000 <SSEG>
     1ec:	00008067          	ret

000001f0 <update_test>:
     1f0:	00151513          	slli	a0,a0,0x1
     1f4:	00150513          	addi	a0,a0,1
     1f8:	00a62023          	sw	a0,0(a2) # 11080000 <LEDS>
     1fc:	00082683          	lw	a3,0(a6)
     200:	0046f693          	andi	a3,a3,4
     204:	00068a63          	beqz	a3,218 <update_test+0x28>
     208:	000f48b7          	lui	a7,0xf4
     20c:	24088893          	addi	a7,a7,576 # f4240 <DELAY_CNT>
     210:	fff88893          	addi	a7,a7,-1
     214:	fe089ee3          	bnez	a7,210 <update_test+0x20>
     218:	00008067          	ret

0000021c <fail>:
     21c:	fff00793          	li	a5,-1
     220:	00f5a023          	sw	a5,0(a1)
     224:	00082683          	lw	a3,0(a6)
     228:	0046f693          	andi	a3,a3,4
     22c:	00068a63          	beqz	a3,240 <fail+0x24>
     230:	000f48b7          	lui	a7,0xf4
     234:	24088893          	addi	a7,a7,576 # f4240 <DELAY_CNT>
     238:	fff88893          	addi	a7,a7,-1
     23c:	fe089ee3          	bnez	a7,238 <fail+0x1c>
     240:	00082683          	lw	a3,0(a6)
     244:	0026f693          	andi	a3,a3,2
     248:	fe069ce3          	bnez	a3,240 <fail+0x24>
     24c:	000f8067          	jr	t6

00000250 <add_test>:
     250:	00000513          	li	a0,0
     254:	00a62023          	sw	a0,0(a2)
     258:	00000093          	li	ra,0
     25c:	00000113          	li	sp,0
     260:	00208f33          	add	t5,ra,sp
     264:	00000e93          	li	t4,0
     268:	00200193          	li	gp,2
     26c:	fbdf18e3          	bne	t5,t4,21c <fail>
     270:	00000097          	auipc	ra,0x0
     274:	f80080e7          	jalr	-128(ra) # 1f0 <update_test>
     278:	00100093          	li	ra,1
     27c:	00100113          	li	sp,1
     280:	00208f33          	add	t5,ra,sp
     284:	00200e93          	li	t4,2
     288:	00300193          	li	gp,3
     28c:	f9df18e3          	bne	t5,t4,21c <fail>
     290:	00000097          	auipc	ra,0x0
     294:	f60080e7          	jalr	-160(ra) # 1f0 <update_test>
     298:	00300093          	li	ra,3
     29c:	00700113          	li	sp,7
     2a0:	00208f33          	add	t5,ra,sp
     2a4:	00a00e93          	li	t4,10
     2a8:	00400193          	li	gp,4
     2ac:	f7df18e3          	bne	t5,t4,21c <fail>
     2b0:	00000097          	auipc	ra,0x0
     2b4:	f40080e7          	jalr	-192(ra) # 1f0 <update_test>
     2b8:	00000093          	li	ra,0
     2bc:	ffff8137          	lui	sp,0xffff8
     2c0:	00208f33          	add	t5,ra,sp
     2c4:	ffff8eb7          	lui	t4,0xffff8
     2c8:	00500193          	li	gp,5
     2cc:	f5df18e3          	bne	t5,t4,21c <fail>
     2d0:	00000097          	auipc	ra,0x0
     2d4:	f20080e7          	jalr	-224(ra) # 1f0 <update_test>
     2d8:	800000b7          	lui	ra,0x80000
     2dc:	00000113          	li	sp,0
     2e0:	00208f33          	add	t5,ra,sp
     2e4:	80000eb7          	lui	t4,0x80000
     2e8:	00600193          	li	gp,6
     2ec:	f3df18e3          	bne	t5,t4,21c <fail>
     2f0:	00000097          	auipc	ra,0x0
     2f4:	f00080e7          	jalr	-256(ra) # 1f0 <update_test>
     2f8:	800000b7          	lui	ra,0x80000
     2fc:	ffff8137          	lui	sp,0xffff8
     300:	00208f33          	add	t5,ra,sp
     304:	7fff8eb7          	lui	t4,0x7fff8
     308:	00700193          	li	gp,7
     30c:	f1df18e3          	bne	t5,t4,21c <fail>
     310:	00000097          	auipc	ra,0x0
     314:	ee0080e7          	jalr	-288(ra) # 1f0 <update_test>
     318:	00000093          	li	ra,0
     31c:	00008137          	lui	sp,0x8
     320:	fff10113          	addi	sp,sp,-1 # 7fff <__global_pointer$+0x38bb>
     324:	00208f33          	add	t5,ra,sp
     328:	00008eb7          	lui	t4,0x8
     32c:	fffe8e93          	addi	t4,t4,-1 # 7fff <__global_pointer$+0x38bb>
     330:	00800193          	li	gp,8
     334:	efdf14e3          	bne	t5,t4,21c <fail>
     338:	00000097          	auipc	ra,0x0
     33c:	eb8080e7          	jalr	-328(ra) # 1f0 <update_test>
     340:	800000b7          	lui	ra,0x80000
     344:	fff08093          	addi	ra,ra,-1 # 7fffffff <SSEG+0x6ef3ffff>
     348:	00000113          	li	sp,0
     34c:	00208f33          	add	t5,ra,sp
     350:	80000eb7          	lui	t4,0x80000
     354:	fffe8e93          	addi	t4,t4,-1 # 7fffffff <SSEG+0x6ef3ffff>
     358:	00900193          	li	gp,9
     35c:	eddf10e3          	bne	t5,t4,21c <fail>
     360:	00000097          	auipc	ra,0x0
     364:	e90080e7          	jalr	-368(ra) # 1f0 <update_test>
     368:	800000b7          	lui	ra,0x80000
     36c:	fff08093          	addi	ra,ra,-1 # 7fffffff <SSEG+0x6ef3ffff>
     370:	00008137          	lui	sp,0x8
     374:	fff10113          	addi	sp,sp,-1 # 7fff <__global_pointer$+0x38bb>
     378:	00208f33          	add	t5,ra,sp
     37c:	80008eb7          	lui	t4,0x80008
     380:	ffee8e93          	addi	t4,t4,-2 # 80007ffe <SSEG+0x6ef47ffe>
     384:	00a00193          	li	gp,10
     388:	e9df1ae3          	bne	t5,t4,21c <fail>
     38c:	00000097          	auipc	ra,0x0
     390:	e64080e7          	jalr	-412(ra) # 1f0 <update_test>
     394:	800000b7          	lui	ra,0x80000
     398:	00008137          	lui	sp,0x8
     39c:	fff10113          	addi	sp,sp,-1 # 7fff <__global_pointer$+0x38bb>
     3a0:	00208f33          	add	t5,ra,sp
     3a4:	80008eb7          	lui	t4,0x80008
     3a8:	fffe8e93          	addi	t4,t4,-1 # 80007fff <SSEG+0x6ef47fff>
     3ac:	00b00193          	li	gp,11
     3b0:	e7df16e3          	bne	t5,t4,21c <fail>
     3b4:	00000097          	auipc	ra,0x0
     3b8:	e3c080e7          	jalr	-452(ra) # 1f0 <update_test>
     3bc:	800000b7          	lui	ra,0x80000
     3c0:	fff08093          	addi	ra,ra,-1 # 7fffffff <SSEG+0x6ef3ffff>
     3c4:	ffff8137          	lui	sp,0xffff8
     3c8:	00208f33          	add	t5,ra,sp
     3cc:	7fff8eb7          	lui	t4,0x7fff8
     3d0:	fffe8e93          	addi	t4,t4,-1 # 7fff7fff <SSEG+0x6ef37fff>
     3d4:	00c00193          	li	gp,12
     3d8:	e5df12e3          	bne	t5,t4,21c <fail>
     3dc:	00000097          	auipc	ra,0x0
     3e0:	e14080e7          	jalr	-492(ra) # 1f0 <update_test>
     3e4:	00000093          	li	ra,0
     3e8:	fff00113          	li	sp,-1
     3ec:	00208f33          	add	t5,ra,sp
     3f0:	fff00e93          	li	t4,-1
     3f4:	00d00193          	li	gp,13
     3f8:	e3df12e3          	bne	t5,t4,21c <fail>
     3fc:	00000097          	auipc	ra,0x0
     400:	df4080e7          	jalr	-524(ra) # 1f0 <update_test>
     404:	fff00093          	li	ra,-1
     408:	00100113          	li	sp,1
     40c:	00208f33          	add	t5,ra,sp
     410:	00000e93          	li	t4,0
     414:	00e00193          	li	gp,14
     418:	e1df12e3          	bne	t5,t4,21c <fail>
     41c:	00000097          	auipc	ra,0x0
     420:	dd4080e7          	jalr	-556(ra) # 1f0 <update_test>
     424:	fff00093          	li	ra,-1
     428:	fff00113          	li	sp,-1
     42c:	00208f33          	add	t5,ra,sp
     430:	ffe00e93          	li	t4,-2
     434:	00f00193          	li	gp,15
     438:	dfdf12e3          	bne	t5,t4,21c <fail>
     43c:	00000097          	auipc	ra,0x0
     440:	db4080e7          	jalr	-588(ra) # 1f0 <update_test>
     444:	00100093          	li	ra,1
     448:	80000137          	lui	sp,0x80000
     44c:	fff10113          	addi	sp,sp,-1 # 7fffffff <SSEG+0x6ef3ffff>
     450:	00208f33          	add	t5,ra,sp
     454:	80000eb7          	lui	t4,0x80000
     458:	01000193          	li	gp,16
     45c:	dddf10e3          	bne	t5,t4,21c <fail>
     460:	00000097          	auipc	ra,0x0
     464:	d90080e7          	jalr	-624(ra) # 1f0 <update_test>
     468:	00d00093          	li	ra,13
     46c:	00b00113          	li	sp,11
     470:	002080b3          	add	ra,ra,sp
     474:	01800e93          	li	t4,24
     478:	01100193          	li	gp,17
     47c:	dbd090e3          	bne	ra,t4,21c <fail>
     480:	00000097          	auipc	ra,0x0
     484:	d70080e7          	jalr	-656(ra) # 1f0 <update_test>
     488:	00e00093          	li	ra,14
     48c:	00b00113          	li	sp,11
     490:	00208133          	add	sp,ra,sp
     494:	01900e93          	li	t4,25
     498:	01200193          	li	gp,18
     49c:	d9d110e3          	bne	sp,t4,21c <fail>
     4a0:	00000097          	auipc	ra,0x0
     4a4:	d50080e7          	jalr	-688(ra) # 1f0 <update_test>
     4a8:	000f8067          	jr	t6

000004ac <sub_test>:
     4ac:	00000513          	li	a0,0
     4b0:	00a62023          	sw	a0,0(a2)
     4b4:	00000093          	li	ra,0
     4b8:	00000113          	li	sp,0
     4bc:	40208f33          	sub	t5,ra,sp
     4c0:	00000e93          	li	t4,0
     4c4:	00200193          	li	gp,2
     4c8:	d5df1ae3          	bne	t5,t4,21c <fail>
     4cc:	00000097          	auipc	ra,0x0
     4d0:	d24080e7          	jalr	-732(ra) # 1f0 <update_test>
     4d4:	00100093          	li	ra,1
     4d8:	00100113          	li	sp,1
     4dc:	40208f33          	sub	t5,ra,sp
     4e0:	00000e93          	li	t4,0
     4e4:	00300193          	li	gp,3
     4e8:	d3df1ae3          	bne	t5,t4,21c <fail>
     4ec:	00000097          	auipc	ra,0x0
     4f0:	d04080e7          	jalr	-764(ra) # 1f0 <update_test>
     4f4:	00300093          	li	ra,3
     4f8:	00700113          	li	sp,7
     4fc:	40208f33          	sub	t5,ra,sp
     500:	ffc00e93          	li	t4,-4
     504:	00400193          	li	gp,4
     508:	d1df1ae3          	bne	t5,t4,21c <fail>
     50c:	00000097          	auipc	ra,0x0
     510:	ce4080e7          	jalr	-796(ra) # 1f0 <update_test>
     514:	00000093          	li	ra,0
     518:	ffff8137          	lui	sp,0xffff8
     51c:	40208f33          	sub	t5,ra,sp
     520:	00008eb7          	lui	t4,0x8
     524:	00500193          	li	gp,5
     528:	cfdf1ae3          	bne	t5,t4,21c <fail>
     52c:	00000097          	auipc	ra,0x0
     530:	cc4080e7          	jalr	-828(ra) # 1f0 <update_test>
     534:	800000b7          	lui	ra,0x80000
     538:	00000113          	li	sp,0
     53c:	40208f33          	sub	t5,ra,sp
     540:	80000eb7          	lui	t4,0x80000
     544:	00600193          	li	gp,6
     548:	cddf1ae3          	bne	t5,t4,21c <fail>
     54c:	00000097          	auipc	ra,0x0
     550:	ca4080e7          	jalr	-860(ra) # 1f0 <update_test>
     554:	800000b7          	lui	ra,0x80000
     558:	ffff8137          	lui	sp,0xffff8
     55c:	40208f33          	sub	t5,ra,sp
     560:	80008eb7          	lui	t4,0x80008
     564:	00700193          	li	gp,7
     568:	cbdf1ae3          	bne	t5,t4,21c <fail>
     56c:	00000097          	auipc	ra,0x0
     570:	c84080e7          	jalr	-892(ra) # 1f0 <update_test>
     574:	00000093          	li	ra,0
     578:	00008137          	lui	sp,0x8
     57c:	fff10113          	addi	sp,sp,-1 # 7fff <__global_pointer$+0x38bb>
     580:	40208f33          	sub	t5,ra,sp
     584:	ffff8eb7          	lui	t4,0xffff8
     588:	001e8e93          	addi	t4,t4,1 # ffff8001 <SSEG+0xeef38001>
     58c:	00800193          	li	gp,8
     590:	c9df16e3          	bne	t5,t4,21c <fail>
     594:	00000097          	auipc	ra,0x0
     598:	c5c080e7          	jalr	-932(ra) # 1f0 <update_test>
     59c:	800000b7          	lui	ra,0x80000
     5a0:	fff08093          	addi	ra,ra,-1 # 7fffffff <SSEG+0x6ef3ffff>
     5a4:	00000113          	li	sp,0
     5a8:	40208f33          	sub	t5,ra,sp
     5ac:	80000eb7          	lui	t4,0x80000
     5b0:	fffe8e93          	addi	t4,t4,-1 # 7fffffff <SSEG+0x6ef3ffff>
     5b4:	00900193          	li	gp,9
     5b8:	c7df12e3          	bne	t5,t4,21c <fail>
     5bc:	00000097          	auipc	ra,0x0
     5c0:	c34080e7          	jalr	-972(ra) # 1f0 <update_test>
     5c4:	800000b7          	lui	ra,0x80000
     5c8:	fff08093          	addi	ra,ra,-1 # 7fffffff <SSEG+0x6ef3ffff>
     5cc:	00008137          	lui	sp,0x8
     5d0:	fff10113          	addi	sp,sp,-1 # 7fff <__global_pointer$+0x38bb>
     5d4:	40208f33          	sub	t5,ra,sp
     5d8:	7fff8eb7          	lui	t4,0x7fff8
     5dc:	00a00193          	li	gp,10
     5e0:	c3df1ee3          	bne	t5,t4,21c <fail>
     5e4:	00000097          	auipc	ra,0x0
     5e8:	c0c080e7          	jalr	-1012(ra) # 1f0 <update_test>
     5ec:	800000b7          	lui	ra,0x80000
     5f0:	00008137          	lui	sp,0x8
     5f4:	fff10113          	addi	sp,sp,-1 # 7fff <__global_pointer$+0x38bb>
     5f8:	40208f33          	sub	t5,ra,sp
     5fc:	7fff8eb7          	lui	t4,0x7fff8
     600:	001e8e93          	addi	t4,t4,1 # 7fff8001 <SSEG+0x6ef38001>
     604:	00b00193          	li	gp,11
     608:	c1df1ae3          	bne	t5,t4,21c <fail>
     60c:	00000097          	auipc	ra,0x0
     610:	be4080e7          	jalr	-1052(ra) # 1f0 <update_test>
     614:	800000b7          	lui	ra,0x80000
     618:	fff08093          	addi	ra,ra,-1 # 7fffffff <SSEG+0x6ef3ffff>
     61c:	ffff8137          	lui	sp,0xffff8
     620:	40208f33          	sub	t5,ra,sp
     624:	80008eb7          	lui	t4,0x80008
     628:	fffe8e93          	addi	t4,t4,-1 # 80007fff <SSEG+0x6ef47fff>
     62c:	00c00193          	li	gp,12
     630:	bfdf16e3          	bne	t5,t4,21c <fail>
     634:	00000097          	auipc	ra,0x0
     638:	bbc080e7          	jalr	-1092(ra) # 1f0 <update_test>
     63c:	00000093          	li	ra,0
     640:	fff00113          	li	sp,-1
     644:	40208f33          	sub	t5,ra,sp
     648:	00100e93          	li	t4,1
     64c:	00d00193          	li	gp,13
     650:	bddf16e3          	bne	t5,t4,21c <fail>
     654:	00000097          	auipc	ra,0x0
     658:	b9c080e7          	jalr	-1124(ra) # 1f0 <update_test>
     65c:	fff00093          	li	ra,-1
     660:	00100113          	li	sp,1
     664:	40208f33          	sub	t5,ra,sp
     668:	ffe00e93          	li	t4,-2
     66c:	00e00193          	li	gp,14
     670:	bbdf16e3          	bne	t5,t4,21c <fail>
     674:	00000097          	auipc	ra,0x0
     678:	b7c080e7          	jalr	-1156(ra) # 1f0 <update_test>
     67c:	fff00093          	li	ra,-1
     680:	fff00113          	li	sp,-1
     684:	40208f33          	sub	t5,ra,sp
     688:	00000e93          	li	t4,0
     68c:	00f00193          	li	gp,15
     690:	b9df16e3          	bne	t5,t4,21c <fail>
     694:	00000097          	auipc	ra,0x0
     698:	b5c080e7          	jalr	-1188(ra) # 1f0 <update_test>
     69c:	00d00093          	li	ra,13
     6a0:	00b00113          	li	sp,11
     6a4:	402080b3          	sub	ra,ra,sp
     6a8:	00200e93          	li	t4,2
     6ac:	01000193          	li	gp,16
     6b0:	b7d096e3          	bne	ra,t4,21c <fail>
     6b4:	00000097          	auipc	ra,0x0
     6b8:	b3c080e7          	jalr	-1220(ra) # 1f0 <update_test>
     6bc:	00e00093          	li	ra,14
     6c0:	00b00113          	li	sp,11
     6c4:	40208133          	sub	sp,ra,sp
     6c8:	00300e93          	li	t4,3
     6cc:	01100193          	li	gp,17
     6d0:	b5d116e3          	bne	sp,t4,21c <fail>
     6d4:	00000097          	auipc	ra,0x0
     6d8:	b1c080e7          	jalr	-1252(ra) # 1f0 <update_test>
     6dc:	000f8067          	jr	t6

000006e0 <and_test>:
     6e0:	00000513          	li	a0,0
     6e4:	00a62023          	sw	a0,0(a2)
     6e8:	ff0100b7          	lui	ra,0xff010
     6ec:	f0008093          	addi	ra,ra,-256 # ff00ff00 <SSEG+0xedf4ff00>
     6f0:	0f0f1137          	lui	sp,0xf0f1
     6f4:	f0f10113          	addi	sp,sp,-241 # f0f0f0f <DELAY_CNT+0xeffcccf>
     6f8:	0020ff33          	and	t5,ra,sp
     6fc:	0f001eb7          	lui	t4,0xf001
     700:	f00e8e93          	addi	t4,t4,-256 # f000f00 <DELAY_CNT+0xef0ccc0>
     704:	00200193          	li	gp,2
     708:	b1df1ae3          	bne	t5,t4,21c <fail>
     70c:	00000097          	auipc	ra,0x0
     710:	ae4080e7          	jalr	-1308(ra) # 1f0 <update_test>
     714:	0ff010b7          	lui	ra,0xff01
     718:	ff008093          	addi	ra,ra,-16 # ff00ff0 <DELAY_CNT+0xfe0cdb0>
     71c:	f0f0f137          	lui	sp,0xf0f0f
     720:	0f010113          	addi	sp,sp,240 # f0f0f0f0 <SSEG+0xdfe4f0f0>
     724:	0020ff33          	and	t5,ra,sp
     728:	00f00eb7          	lui	t4,0xf00
     72c:	0f0e8e93          	addi	t4,t4,240 # f000f0 <DELAY_CNT+0xe0beb0>
     730:	00300193          	li	gp,3
     734:	afdf14e3          	bne	t5,t4,21c <fail>
     738:	00000097          	auipc	ra,0x0
     73c:	ab8080e7          	jalr	-1352(ra) # 1f0 <update_test>
     740:	00ff00b7          	lui	ra,0xff0
     744:	0ff08093          	addi	ra,ra,255 # ff00ff <DELAY_CNT+0xefbebf>
     748:	0f0f1137          	lui	sp,0xf0f1
     74c:	f0f10113          	addi	sp,sp,-241 # f0f0f0f <DELAY_CNT+0xeffcccf>
     750:	0020ff33          	and	t5,ra,sp
     754:	000f0eb7          	lui	t4,0xf0
     758:	00fe8e93          	addi	t4,t4,15 # f000f <__sp+0xe000f>
     75c:	00400193          	li	gp,4
     760:	abdf1ee3          	bne	t5,t4,21c <fail>
     764:	00000097          	auipc	ra,0x0
     768:	a8c080e7          	jalr	-1396(ra) # 1f0 <update_test>
     76c:	f00ff0b7          	lui	ra,0xf00ff
     770:	00f08093          	addi	ra,ra,15 # f00ff00f <SSEG+0xdf03f00f>
     774:	f0f0f137          	lui	sp,0xf0f0f
     778:	0f010113          	addi	sp,sp,240 # f0f0f0f0 <SSEG+0xdfe4f0f0>
     77c:	0020ff33          	and	t5,ra,sp
     780:	f000feb7          	lui	t4,0xf000f
     784:	00500193          	li	gp,5
     788:	a9df1ae3          	bne	t5,t4,21c <fail>
     78c:	00000097          	auipc	ra,0x0
     790:	a64080e7          	jalr	-1436(ra) # 1f0 <update_test>
     794:	ff0100b7          	lui	ra,0xff010
     798:	f0008093          	addi	ra,ra,-256 # ff00ff00 <SSEG+0xedf4ff00>
     79c:	0f0f1137          	lui	sp,0xf0f1
     7a0:	f0f10113          	addi	sp,sp,-241 # f0f0f0f <DELAY_CNT+0xeffcccf>
     7a4:	0020f0b3          	and	ra,ra,sp
     7a8:	0f001eb7          	lui	t4,0xf001
     7ac:	f00e8e93          	addi	t4,t4,-256 # f000f00 <DELAY_CNT+0xef0ccc0>
     7b0:	00600193          	li	gp,6
     7b4:	a7d094e3          	bne	ra,t4,21c <fail>
     7b8:	00000097          	auipc	ra,0x0
     7bc:	a38080e7          	jalr	-1480(ra) # 1f0 <update_test>
     7c0:	0ff010b7          	lui	ra,0xff01
     7c4:	ff008093          	addi	ra,ra,-16 # ff00ff0 <DELAY_CNT+0xfe0cdb0>
     7c8:	f0f0f137          	lui	sp,0xf0f0f
     7cc:	0f010113          	addi	sp,sp,240 # f0f0f0f0 <SSEG+0xdfe4f0f0>
     7d0:	0020f133          	and	sp,ra,sp
     7d4:	00f00eb7          	lui	t4,0xf00
     7d8:	0f0e8e93          	addi	t4,t4,240 # f000f0 <DELAY_CNT+0xe0beb0>
     7dc:	00700193          	li	gp,7
     7e0:	a3d11ee3          	bne	sp,t4,21c <fail>
     7e4:	00000097          	auipc	ra,0x0
     7e8:	a0c080e7          	jalr	-1524(ra) # 1f0 <update_test>
     7ec:	ff0100b7          	lui	ra,0xff010
     7f0:	f0008093          	addi	ra,ra,-256 # ff00ff00 <SSEG+0xedf4ff00>
     7f4:	0010f0b3          	and	ra,ra,ra
     7f8:	ff010eb7          	lui	t4,0xff010
     7fc:	f00e8e93          	addi	t4,t4,-256 # ff00ff00 <SSEG+0xedf4ff00>
     800:	00800193          	li	gp,8
     804:	a1d09ce3          	bne	ra,t4,21c <fail>
     808:	00000097          	auipc	ra,0x0
     80c:	9e8080e7          	jalr	-1560(ra) # 1f0 <update_test>
     810:	000f8067          	jr	t6

00000814 <or_test>:
     814:	00000513          	li	a0,0
     818:	00a62023          	sw	a0,0(a2)
     81c:	ff0100b7          	lui	ra,0xff010
     820:	f0008093          	addi	ra,ra,-256 # ff00ff00 <SSEG+0xedf4ff00>
     824:	0f0f1137          	lui	sp,0xf0f1
     828:	f0f10113          	addi	sp,sp,-241 # f0f0f0f <DELAY_CNT+0xeffcccf>
     82c:	0020ef33          	or	t5,ra,sp
     830:	ff100eb7          	lui	t4,0xff100
     834:	f0fe8e93          	addi	t4,t4,-241 # ff0fff0f <SSEG+0xee03ff0f>
     838:	00200193          	li	gp,2
     83c:	9fdf10e3          	bne	t5,t4,21c <fail>
     840:	00000097          	auipc	ra,0x0
     844:	9b0080e7          	jalr	-1616(ra) # 1f0 <update_test>
     848:	0ff010b7          	lui	ra,0xff01
     84c:	ff008093          	addi	ra,ra,-16 # ff00ff0 <DELAY_CNT+0xfe0cdb0>
     850:	f0f0f137          	lui	sp,0xf0f0f
     854:	0f010113          	addi	sp,sp,240 # f0f0f0f0 <SSEG+0xdfe4f0f0>
     858:	0020ef33          	or	t5,ra,sp
     85c:	fff10eb7          	lui	t4,0xfff10
     860:	ff0e8e93          	addi	t4,t4,-16 # fff0fff0 <SSEG+0xeee4fff0>
     864:	00300193          	li	gp,3
     868:	9bdf1ae3          	bne	t5,t4,21c <fail>
     86c:	00000097          	auipc	ra,0x0
     870:	984080e7          	jalr	-1660(ra) # 1f0 <update_test>
     874:	00ff00b7          	lui	ra,0xff0
     878:	0ff08093          	addi	ra,ra,255 # ff00ff <DELAY_CNT+0xefbebf>
     87c:	0f0f1137          	lui	sp,0xf0f1
     880:	f0f10113          	addi	sp,sp,-241 # f0f0f0f <DELAY_CNT+0xeffcccf>
     884:	0020ef33          	or	t5,ra,sp
     888:	0fff1eb7          	lui	t4,0xfff1
     88c:	fffe8e93          	addi	t4,t4,-1 # fff0fff <DELAY_CNT+0xfefcdbf>
     890:	00400193          	li	gp,4
     894:	99df14e3          	bne	t5,t4,21c <fail>
     898:	00000097          	auipc	ra,0x0
     89c:	958080e7          	jalr	-1704(ra) # 1f0 <update_test>
     8a0:	f00ff0b7          	lui	ra,0xf00ff
     8a4:	00f08093          	addi	ra,ra,15 # f00ff00f <SSEG+0xdf03f00f>
     8a8:	f0f0f137          	lui	sp,0xf0f0f
     8ac:	0f010113          	addi	sp,sp,240 # f0f0f0f0 <SSEG+0xdfe4f0f0>
     8b0:	0020ef33          	or	t5,ra,sp
     8b4:	f0fffeb7          	lui	t4,0xf0fff
     8b8:	0ffe8e93          	addi	t4,t4,255 # f0fff0ff <SSEG+0xdff3f0ff>
     8bc:	00500193          	li	gp,5
     8c0:	95df1ee3          	bne	t5,t4,21c <fail>
     8c4:	00000097          	auipc	ra,0x0
     8c8:	92c080e7          	jalr	-1748(ra) # 1f0 <update_test>
     8cc:	ff0100b7          	lui	ra,0xff010
     8d0:	f0008093          	addi	ra,ra,-256 # ff00ff00 <SSEG+0xedf4ff00>
     8d4:	0f0f1137          	lui	sp,0xf0f1
     8d8:	f0f10113          	addi	sp,sp,-241 # f0f0f0f <DELAY_CNT+0xeffcccf>
     8dc:	0020e0b3          	or	ra,ra,sp
     8e0:	ff100eb7          	lui	t4,0xff100
     8e4:	f0fe8e93          	addi	t4,t4,-241 # ff0fff0f <SSEG+0xee03ff0f>
     8e8:	00600193          	li	gp,6
     8ec:	93d098e3          	bne	ra,t4,21c <fail>
     8f0:	00000097          	auipc	ra,0x0
     8f4:	900080e7          	jalr	-1792(ra) # 1f0 <update_test>
     8f8:	ff0100b7          	lui	ra,0xff010
     8fc:	f0008093          	addi	ra,ra,-256 # ff00ff00 <SSEG+0xedf4ff00>
     900:	0f0f1137          	lui	sp,0xf0f1
     904:	f0f10113          	addi	sp,sp,-241 # f0f0f0f <DELAY_CNT+0xeffcccf>
     908:	0020e133          	or	sp,ra,sp
     90c:	ff100eb7          	lui	t4,0xff100
     910:	f0fe8e93          	addi	t4,t4,-241 # ff0fff0f <SSEG+0xee03ff0f>
     914:	00700193          	li	gp,7
     918:	91d112e3          	bne	sp,t4,21c <fail>
     91c:	00000097          	auipc	ra,0x0
     920:	8d4080e7          	jalr	-1836(ra) # 1f0 <update_test>
     924:	ff0100b7          	lui	ra,0xff010
     928:	f0008093          	addi	ra,ra,-256 # ff00ff00 <SSEG+0xedf4ff00>
     92c:	0010e0b3          	or	ra,ra,ra
     930:	ff010eb7          	lui	t4,0xff010
     934:	f00e8e93          	addi	t4,t4,-256 # ff00ff00 <SSEG+0xedf4ff00>
     938:	00800193          	li	gp,8
     93c:	8fd090e3          	bne	ra,t4,21c <fail>
     940:	00000097          	auipc	ra,0x0
     944:	8b0080e7          	jalr	-1872(ra) # 1f0 <update_test>
     948:	000f8067          	jr	t6

0000094c <xor_test>:
     94c:	00000513          	li	a0,0
     950:	00a62023          	sw	a0,0(a2)
     954:	ff0100b7          	lui	ra,0xff010
     958:	f0008093          	addi	ra,ra,-256 # ff00ff00 <SSEG+0xedf4ff00>
     95c:	0f0f1137          	lui	sp,0xf0f1
     960:	f0f10113          	addi	sp,sp,-241 # f0f0f0f <DELAY_CNT+0xeffcccf>
     964:	0020cf33          	xor	t5,ra,sp
     968:	f00ffeb7          	lui	t4,0xf00ff
     96c:	00fe8e93          	addi	t4,t4,15 # f00ff00f <SSEG+0xdf03f00f>
     970:	00200193          	li	gp,2
     974:	8bdf14e3          	bne	t5,t4,21c <fail>
     978:	00000097          	auipc	ra,0x0
     97c:	878080e7          	jalr	-1928(ra) # 1f0 <update_test>
     980:	0ff010b7          	lui	ra,0xff01
     984:	ff008093          	addi	ra,ra,-16 # ff00ff0 <DELAY_CNT+0xfe0cdb0>
     988:	f0f0f137          	lui	sp,0xf0f0f
     98c:	0f010113          	addi	sp,sp,240 # f0f0f0f0 <SSEG+0xdfe4f0f0>
     990:	0020cf33          	xor	t5,ra,sp
     994:	ff010eb7          	lui	t4,0xff010
     998:	f00e8e93          	addi	t4,t4,-256 # ff00ff00 <SSEG+0xedf4ff00>
     99c:	00300193          	li	gp,3
     9a0:	87df1ee3          	bne	t5,t4,21c <fail>
     9a4:	00000097          	auipc	ra,0x0
     9a8:	84c080e7          	jalr	-1972(ra) # 1f0 <update_test>
     9ac:	00ff00b7          	lui	ra,0xff0
     9b0:	0ff08093          	addi	ra,ra,255 # ff00ff <DELAY_CNT+0xefbebf>
     9b4:	0f0f1137          	lui	sp,0xf0f1
     9b8:	f0f10113          	addi	sp,sp,-241 # f0f0f0f <DELAY_CNT+0xeffcccf>
     9bc:	0020cf33          	xor	t5,ra,sp
     9c0:	0ff01eb7          	lui	t4,0xff01
     9c4:	ff0e8e93          	addi	t4,t4,-16 # ff00ff0 <DELAY_CNT+0xfe0cdb0>
     9c8:	00400193          	li	gp,4
     9cc:	85df18e3          	bne	t5,t4,21c <fail>
     9d0:	00000097          	auipc	ra,0x0
     9d4:	820080e7          	jalr	-2016(ra) # 1f0 <update_test>
     9d8:	f00ff0b7          	lui	ra,0xf00ff
     9dc:	00f08093          	addi	ra,ra,15 # f00ff00f <SSEG+0xdf03f00f>
     9e0:	f0f0f137          	lui	sp,0xf0f0f
     9e4:	0f010113          	addi	sp,sp,240 # f0f0f0f0 <SSEG+0xdfe4f0f0>
     9e8:	0020cf33          	xor	t5,ra,sp
     9ec:	00ff0eb7          	lui	t4,0xff0
     9f0:	0ffe8e93          	addi	t4,t4,255 # ff00ff <DELAY_CNT+0xefbebf>
     9f4:	00500193          	li	gp,5
     9f8:	83df12e3          	bne	t5,t4,21c <fail>
     9fc:	fffff097          	auipc	ra,0xfffff
     a00:	7f4080e7          	jalr	2036(ra) # 1f0 <update_test>
     a04:	ff0100b7          	lui	ra,0xff010
     a08:	f0008093          	addi	ra,ra,-256 # ff00ff00 <SSEG+0xedf4ff00>
     a0c:	0f0f1137          	lui	sp,0xf0f1
     a10:	f0f10113          	addi	sp,sp,-241 # f0f0f0f <DELAY_CNT+0xeffcccf>
     a14:	0020c0b3          	xor	ra,ra,sp
     a18:	f00ffeb7          	lui	t4,0xf00ff
     a1c:	00fe8e93          	addi	t4,t4,15 # f00ff00f <SSEG+0xdf03f00f>
     a20:	00600193          	li	gp,6
     a24:	ffd09c63          	bne	ra,t4,21c <fail>
     a28:	fffff097          	auipc	ra,0xfffff
     a2c:	7c8080e7          	jalr	1992(ra) # 1f0 <update_test>
     a30:	ff0100b7          	lui	ra,0xff010
     a34:	f0008093          	addi	ra,ra,-256 # ff00ff00 <SSEG+0xedf4ff00>
     a38:	0f0f1137          	lui	sp,0xf0f1
     a3c:	f0f10113          	addi	sp,sp,-241 # f0f0f0f <DELAY_CNT+0xeffcccf>
     a40:	0020c133          	xor	sp,ra,sp
     a44:	f00ffeb7          	lui	t4,0xf00ff
     a48:	00fe8e93          	addi	t4,t4,15 # f00ff00f <SSEG+0xdf03f00f>
     a4c:	00700193          	li	gp,7
     a50:	fdd11663          	bne	sp,t4,21c <fail>
     a54:	fffff097          	auipc	ra,0xfffff
     a58:	79c080e7          	jalr	1948(ra) # 1f0 <update_test>
     a5c:	ff0100b7          	lui	ra,0xff010
     a60:	f0008093          	addi	ra,ra,-256 # ff00ff00 <SSEG+0xedf4ff00>
     a64:	0010c0b3          	xor	ra,ra,ra
     a68:	00000e93          	li	t4,0
     a6c:	00800193          	li	gp,8
     a70:	fbd09663          	bne	ra,t4,21c <fail>
     a74:	fffff097          	auipc	ra,0xfffff
     a78:	77c080e7          	jalr	1916(ra) # 1f0 <update_test>
     a7c:	000f8067          	jr	t6

00000a80 <sll_test>:
     a80:	00000513          	li	a0,0
     a84:	00a62023          	sw	a0,0(a2)
     a88:	00100093          	li	ra,1
     a8c:	00000113          	li	sp,0
     a90:	00209f33          	sll	t5,ra,sp
     a94:	00100e93          	li	t4,1
     a98:	00200193          	li	gp,2
     a9c:	f9df1063          	bne	t5,t4,21c <fail>
     aa0:	fffff097          	auipc	ra,0xfffff
     aa4:	750080e7          	jalr	1872(ra) # 1f0 <update_test>
     aa8:	00100093          	li	ra,1
     aac:	00100113          	li	sp,1
     ab0:	00209f33          	sll	t5,ra,sp
     ab4:	00200e93          	li	t4,2
     ab8:	00300193          	li	gp,3
     abc:	f7df1063          	bne	t5,t4,21c <fail>
     ac0:	fffff097          	auipc	ra,0xfffff
     ac4:	730080e7          	jalr	1840(ra) # 1f0 <update_test>
     ac8:	00100093          	li	ra,1
     acc:	00700113          	li	sp,7
     ad0:	00209f33          	sll	t5,ra,sp
     ad4:	08000e93          	li	t4,128
     ad8:	00400193          	li	gp,4
     adc:	f5df1063          	bne	t5,t4,21c <fail>
     ae0:	fffff097          	auipc	ra,0xfffff
     ae4:	710080e7          	jalr	1808(ra) # 1f0 <update_test>
     ae8:	00100093          	li	ra,1
     aec:	00e00113          	li	sp,14
     af0:	00209f33          	sll	t5,ra,sp
     af4:	00004eb7          	lui	t4,0x4
     af8:	00500193          	li	gp,5
     afc:	f3df1063          	bne	t5,t4,21c <fail>
     b00:	fffff097          	auipc	ra,0xfffff
     b04:	6f0080e7          	jalr	1776(ra) # 1f0 <update_test>
     b08:	00100093          	li	ra,1
     b0c:	01f00113          	li	sp,31
     b10:	00209f33          	sll	t5,ra,sp
     b14:	80000eb7          	lui	t4,0x80000
     b18:	00600193          	li	gp,6
     b1c:	f1df1063          	bne	t5,t4,21c <fail>
     b20:	fffff097          	auipc	ra,0xfffff
     b24:	6d0080e7          	jalr	1744(ra) # 1f0 <update_test>
     b28:	fff00093          	li	ra,-1
     b2c:	00000113          	li	sp,0
     b30:	00209f33          	sll	t5,ra,sp
     b34:	fff00e93          	li	t4,-1
     b38:	00700193          	li	gp,7
     b3c:	efdf1063          	bne	t5,t4,21c <fail>
     b40:	fffff097          	auipc	ra,0xfffff
     b44:	6b0080e7          	jalr	1712(ra) # 1f0 <update_test>
     b48:	fff00093          	li	ra,-1
     b4c:	00100113          	li	sp,1
     b50:	00209f33          	sll	t5,ra,sp
     b54:	ffe00e93          	li	t4,-2
     b58:	00800193          	li	gp,8
     b5c:	eddf1063          	bne	t5,t4,21c <fail>
     b60:	fffff097          	auipc	ra,0xfffff
     b64:	690080e7          	jalr	1680(ra) # 1f0 <update_test>
     b68:	fff00093          	li	ra,-1
     b6c:	00700113          	li	sp,7
     b70:	00209f33          	sll	t5,ra,sp
     b74:	f8000e93          	li	t4,-128
     b78:	00900193          	li	gp,9
     b7c:	ebdf1063          	bne	t5,t4,21c <fail>
     b80:	fffff097          	auipc	ra,0xfffff
     b84:	670080e7          	jalr	1648(ra) # 1f0 <update_test>
     b88:	fff00093          	li	ra,-1
     b8c:	00e00113          	li	sp,14
     b90:	00209f33          	sll	t5,ra,sp
     b94:	ffffceb7          	lui	t4,0xffffc
     b98:	00a00193          	li	gp,10
     b9c:	e9df1063          	bne	t5,t4,21c <fail>
     ba0:	fffff097          	auipc	ra,0xfffff
     ba4:	650080e7          	jalr	1616(ra) # 1f0 <update_test>
     ba8:	fff00093          	li	ra,-1
     bac:	01f00113          	li	sp,31
     bb0:	00209f33          	sll	t5,ra,sp
     bb4:	80000eb7          	lui	t4,0x80000
     bb8:	00b00193          	li	gp,11
     bbc:	e7df1063          	bne	t5,t4,21c <fail>
     bc0:	fffff097          	auipc	ra,0xfffff
     bc4:	630080e7          	jalr	1584(ra) # 1f0 <update_test>
     bc8:	212120b7          	lui	ra,0x21212
     bcc:	12108093          	addi	ra,ra,289 # 21212121 <SSEG+0x10152121>
     bd0:	00000113          	li	sp,0
     bd4:	00209f33          	sll	t5,ra,sp
     bd8:	21212eb7          	lui	t4,0x21212
     bdc:	121e8e93          	addi	t4,t4,289 # 21212121 <SSEG+0x10152121>
     be0:	00c00193          	li	gp,12
     be4:	e3df1c63          	bne	t5,t4,21c <fail>
     be8:	fffff097          	auipc	ra,0xfffff
     bec:	608080e7          	jalr	1544(ra) # 1f0 <update_test>
     bf0:	212120b7          	lui	ra,0x21212
     bf4:	12108093          	addi	ra,ra,289 # 21212121 <SSEG+0x10152121>
     bf8:	00100113          	li	sp,1
     bfc:	00209f33          	sll	t5,ra,sp
     c00:	42424eb7          	lui	t4,0x42424
     c04:	242e8e93          	addi	t4,t4,578 # 42424242 <SSEG+0x31364242>
     c08:	00d00193          	li	gp,13
     c0c:	e1df1863          	bne	t5,t4,21c <fail>
     c10:	fffff097          	auipc	ra,0xfffff
     c14:	5e0080e7          	jalr	1504(ra) # 1f0 <update_test>
     c18:	212120b7          	lui	ra,0x21212
     c1c:	12108093          	addi	ra,ra,289 # 21212121 <SSEG+0x10152121>
     c20:	00700113          	li	sp,7
     c24:	00209f33          	sll	t5,ra,sp
     c28:	90909eb7          	lui	t4,0x90909
     c2c:	080e8e93          	addi	t4,t4,128 # 90909080 <SSEG+0x7f849080>
     c30:	00e00193          	li	gp,14
     c34:	dfdf1463          	bne	t5,t4,21c <fail>
     c38:	fffff097          	auipc	ra,0xfffff
     c3c:	5b8080e7          	jalr	1464(ra) # 1f0 <update_test>
     c40:	212120b7          	lui	ra,0x21212
     c44:	12108093          	addi	ra,ra,289 # 21212121 <SSEG+0x10152121>
     c48:	00e00113          	li	sp,14
     c4c:	00209f33          	sll	t5,ra,sp
     c50:	48484eb7          	lui	t4,0x48484
     c54:	00f00193          	li	gp,15
     c58:	dddf1263          	bne	t5,t4,21c <fail>
     c5c:	fffff097          	auipc	ra,0xfffff
     c60:	594080e7          	jalr	1428(ra) # 1f0 <update_test>
     c64:	212120b7          	lui	ra,0x21212
     c68:	12108093          	addi	ra,ra,289 # 21212121 <SSEG+0x10152121>
     c6c:	01f00113          	li	sp,31
     c70:	00209f33          	sll	t5,ra,sp
     c74:	80000eb7          	lui	t4,0x80000
     c78:	01000193          	li	gp,16
     c7c:	dbdf1063          	bne	t5,t4,21c <fail>
     c80:	fffff097          	auipc	ra,0xfffff
     c84:	570080e7          	jalr	1392(ra) # 1f0 <update_test>
     c88:	212120b7          	lui	ra,0x21212
     c8c:	12108093          	addi	ra,ra,289 # 21212121 <SSEG+0x10152121>
     c90:	fc000113          	li	sp,-64
     c94:	00209f33          	sll	t5,ra,sp
     c98:	21212eb7          	lui	t4,0x21212
     c9c:	121e8e93          	addi	t4,t4,289 # 21212121 <SSEG+0x10152121>
     ca0:	01100193          	li	gp,17
     ca4:	d7df1c63          	bne	t5,t4,21c <fail>
     ca8:	fffff097          	auipc	ra,0xfffff
     cac:	548080e7          	jalr	1352(ra) # 1f0 <update_test>
     cb0:	212120b7          	lui	ra,0x21212
     cb4:	12108093          	addi	ra,ra,289 # 21212121 <SSEG+0x10152121>
     cb8:	fc100113          	li	sp,-63
     cbc:	00209f33          	sll	t5,ra,sp
     cc0:	42424eb7          	lui	t4,0x42424
     cc4:	242e8e93          	addi	t4,t4,578 # 42424242 <SSEG+0x31364242>
     cc8:	01200193          	li	gp,18
     ccc:	d5df1863          	bne	t5,t4,21c <fail>
     cd0:	fffff097          	auipc	ra,0xfffff
     cd4:	520080e7          	jalr	1312(ra) # 1f0 <update_test>
     cd8:	212120b7          	lui	ra,0x21212
     cdc:	12108093          	addi	ra,ra,289 # 21212121 <SSEG+0x10152121>
     ce0:	fc700113          	li	sp,-57
     ce4:	00209f33          	sll	t5,ra,sp
     ce8:	90909eb7          	lui	t4,0x90909
     cec:	080e8e93          	addi	t4,t4,128 # 90909080 <SSEG+0x7f849080>
     cf0:	01300193          	li	gp,19
     cf4:	d3df1463          	bne	t5,t4,21c <fail>
     cf8:	fffff097          	auipc	ra,0xfffff
     cfc:	4f8080e7          	jalr	1272(ra) # 1f0 <update_test>
     d00:	212120b7          	lui	ra,0x21212
     d04:	12108093          	addi	ra,ra,289 # 21212121 <SSEG+0x10152121>
     d08:	fce00113          	li	sp,-50
     d0c:	00209f33          	sll	t5,ra,sp
     d10:	48484eb7          	lui	t4,0x48484
     d14:	01400193          	li	gp,20
     d18:	d1df1263          	bne	t5,t4,21c <fail>
     d1c:	fffff097          	auipc	ra,0xfffff
     d20:	4d4080e7          	jalr	1236(ra) # 1f0 <update_test>
     d24:	000f8067          	jr	t6

00000d28 <srl_test>:
     d28:	00000513          	li	a0,0
     d2c:	00a62023          	sw	a0,0(a2)
     d30:	800000b7          	lui	ra,0x80000
     d34:	00000113          	li	sp,0
     d38:	0020df33          	srl	t5,ra,sp
     d3c:	80000eb7          	lui	t4,0x80000
     d40:	00200193          	li	gp,2
     d44:	cddf1c63          	bne	t5,t4,21c <fail>
     d48:	fffff097          	auipc	ra,0xfffff
     d4c:	4a8080e7          	jalr	1192(ra) # 1f0 <update_test>
     d50:	800000b7          	lui	ra,0x80000
     d54:	00100113          	li	sp,1
     d58:	0020df33          	srl	t5,ra,sp
     d5c:	40000eb7          	lui	t4,0x40000
     d60:	00300193          	li	gp,3
     d64:	cbdf1c63          	bne	t5,t4,21c <fail>
     d68:	fffff097          	auipc	ra,0xfffff
     d6c:	488080e7          	jalr	1160(ra) # 1f0 <update_test>
     d70:	800000b7          	lui	ra,0x80000
     d74:	00700113          	li	sp,7
     d78:	0020df33          	srl	t5,ra,sp
     d7c:	01000eb7          	lui	t4,0x1000
     d80:	00400193          	li	gp,4
     d84:	c9df1c63          	bne	t5,t4,21c <fail>
     d88:	fffff097          	auipc	ra,0xfffff
     d8c:	468080e7          	jalr	1128(ra) # 1f0 <update_test>
     d90:	800000b7          	lui	ra,0x80000
     d94:	00e00113          	li	sp,14
     d98:	0020df33          	srl	t5,ra,sp
     d9c:	00020eb7          	lui	t4,0x20
     da0:	00500193          	li	gp,5
     da4:	c7df1c63          	bne	t5,t4,21c <fail>
     da8:	fffff097          	auipc	ra,0xfffff
     dac:	448080e7          	jalr	1096(ra) # 1f0 <update_test>
     db0:	800000b7          	lui	ra,0x80000
     db4:	00108093          	addi	ra,ra,1 # 80000001 <SSEG+0x6ef40001>
     db8:	01f00113          	li	sp,31
     dbc:	0020df33          	srl	t5,ra,sp
     dc0:	00100e93          	li	t4,1
     dc4:	00600193          	li	gp,6
     dc8:	c5df1a63          	bne	t5,t4,21c <fail>
     dcc:	fffff097          	auipc	ra,0xfffff
     dd0:	424080e7          	jalr	1060(ra) # 1f0 <update_test>
     dd4:	fff00093          	li	ra,-1
     dd8:	00000113          	li	sp,0
     ddc:	0020df33          	srl	t5,ra,sp
     de0:	fff00e93          	li	t4,-1
     de4:	00700193          	li	gp,7
     de8:	c3df1a63          	bne	t5,t4,21c <fail>
     dec:	fffff097          	auipc	ra,0xfffff
     df0:	404080e7          	jalr	1028(ra) # 1f0 <update_test>
     df4:	fff00093          	li	ra,-1
     df8:	00100113          	li	sp,1
     dfc:	0020df33          	srl	t5,ra,sp
     e00:	80000eb7          	lui	t4,0x80000
     e04:	fffe8e93          	addi	t4,t4,-1 # 7fffffff <SSEG+0x6ef3ffff>
     e08:	00800193          	li	gp,8
     e0c:	c1df1863          	bne	t5,t4,21c <fail>
     e10:	fffff097          	auipc	ra,0xfffff
     e14:	3e0080e7          	jalr	992(ra) # 1f0 <update_test>
     e18:	fff00093          	li	ra,-1
     e1c:	00700113          	li	sp,7
     e20:	0020df33          	srl	t5,ra,sp
     e24:	02000eb7          	lui	t4,0x2000
     e28:	fffe8e93          	addi	t4,t4,-1 # 1ffffff <DELAY_CNT+0x1f0bdbf>
     e2c:	00900193          	li	gp,9
     e30:	bfdf1663          	bne	t5,t4,21c <fail>
     e34:	fffff097          	auipc	ra,0xfffff
     e38:	3bc080e7          	jalr	956(ra) # 1f0 <update_test>
     e3c:	fff00093          	li	ra,-1
     e40:	00e00113          	li	sp,14
     e44:	0020df33          	srl	t5,ra,sp
     e48:	00040eb7          	lui	t4,0x40
     e4c:	fffe8e93          	addi	t4,t4,-1 # 3ffff <__sp+0x2ffff>
     e50:	00a00193          	li	gp,10
     e54:	bddf1463          	bne	t5,t4,21c <fail>
     e58:	fffff097          	auipc	ra,0xfffff
     e5c:	398080e7          	jalr	920(ra) # 1f0 <update_test>
     e60:	fff00093          	li	ra,-1
     e64:	01f00113          	li	sp,31
     e68:	0020df33          	srl	t5,ra,sp
     e6c:	00100e93          	li	t4,1
     e70:	00b00193          	li	gp,11
     e74:	bbdf1463          	bne	t5,t4,21c <fail>
     e78:	fffff097          	auipc	ra,0xfffff
     e7c:	378080e7          	jalr	888(ra) # 1f0 <update_test>
     e80:	212120b7          	lui	ra,0x21212
     e84:	12108093          	addi	ra,ra,289 # 21212121 <SSEG+0x10152121>
     e88:	00000113          	li	sp,0
     e8c:	0020df33          	srl	t5,ra,sp
     e90:	21212eb7          	lui	t4,0x21212
     e94:	121e8e93          	addi	t4,t4,289 # 21212121 <SSEG+0x10152121>
     e98:	00c00193          	li	gp,12
     e9c:	b9df1063          	bne	t5,t4,21c <fail>
     ea0:	fffff097          	auipc	ra,0xfffff
     ea4:	350080e7          	jalr	848(ra) # 1f0 <update_test>
     ea8:	212120b7          	lui	ra,0x21212
     eac:	12108093          	addi	ra,ra,289 # 21212121 <SSEG+0x10152121>
     eb0:	00100113          	li	sp,1
     eb4:	0020df33          	srl	t5,ra,sp
     eb8:	10909eb7          	lui	t4,0x10909
     ebc:	090e8e93          	addi	t4,t4,144 # 10909090 <DELAY_CNT+0x10814e50>
     ec0:	00d00193          	li	gp,13
     ec4:	b5df1c63          	bne	t5,t4,21c <fail>
     ec8:	fffff097          	auipc	ra,0xfffff
     ecc:	328080e7          	jalr	808(ra) # 1f0 <update_test>
     ed0:	212120b7          	lui	ra,0x21212
     ed4:	12108093          	addi	ra,ra,289 # 21212121 <SSEG+0x10152121>
     ed8:	00700113          	li	sp,7
     edc:	0020df33          	srl	t5,ra,sp
     ee0:	00424eb7          	lui	t4,0x424
     ee4:	242e8e93          	addi	t4,t4,578 # 424242 <DELAY_CNT+0x330002>
     ee8:	00e00193          	li	gp,14
     eec:	b3df1863          	bne	t5,t4,21c <fail>
     ef0:	fffff097          	auipc	ra,0xfffff
     ef4:	300080e7          	jalr	768(ra) # 1f0 <update_test>
     ef8:	212120b7          	lui	ra,0x21212
     efc:	12108093          	addi	ra,ra,289 # 21212121 <SSEG+0x10152121>
     f00:	00e00113          	li	sp,14
     f04:	0020df33          	srl	t5,ra,sp
     f08:	00008eb7          	lui	t4,0x8
     f0c:	484e8e93          	addi	t4,t4,1156 # 8484 <__global_pointer$+0x3d40>
     f10:	00f00193          	li	gp,15
     f14:	b1df1463          	bne	t5,t4,21c <fail>
     f18:	fffff097          	auipc	ra,0xfffff
     f1c:	2d8080e7          	jalr	728(ra) # 1f0 <update_test>
     f20:	212120b7          	lui	ra,0x21212
     f24:	12108093          	addi	ra,ra,289 # 21212121 <SSEG+0x10152121>
     f28:	01f00113          	li	sp,31
     f2c:	0020df33          	srl	t5,ra,sp
     f30:	00000e93          	li	t4,0
     f34:	01000193          	li	gp,16
     f38:	afdf1263          	bne	t5,t4,21c <fail>
     f3c:	fffff097          	auipc	ra,0xfffff
     f40:	2b4080e7          	jalr	692(ra) # 1f0 <update_test>
     f44:	212120b7          	lui	ra,0x21212
     f48:	12108093          	addi	ra,ra,289 # 21212121 <SSEG+0x10152121>
     f4c:	fc000113          	li	sp,-64
     f50:	0020df33          	srl	t5,ra,sp
     f54:	21212eb7          	lui	t4,0x21212
     f58:	121e8e93          	addi	t4,t4,289 # 21212121 <SSEG+0x10152121>
     f5c:	01100193          	li	gp,17
     f60:	abdf1e63          	bne	t5,t4,21c <fail>
     f64:	fffff097          	auipc	ra,0xfffff
     f68:	28c080e7          	jalr	652(ra) # 1f0 <update_test>
     f6c:	212120b7          	lui	ra,0x21212
     f70:	12108093          	addi	ra,ra,289 # 21212121 <SSEG+0x10152121>
     f74:	fc100113          	li	sp,-63
     f78:	0020df33          	srl	t5,ra,sp
     f7c:	10909eb7          	lui	t4,0x10909
     f80:	090e8e93          	addi	t4,t4,144 # 10909090 <DELAY_CNT+0x10814e50>
     f84:	01200193          	li	gp,18
     f88:	a9df1a63          	bne	t5,t4,21c <fail>
     f8c:	fffff097          	auipc	ra,0xfffff
     f90:	264080e7          	jalr	612(ra) # 1f0 <update_test>
     f94:	000f8067          	jr	t6

00000f98 <sra_test>:
     f98:	00000513          	li	a0,0
     f9c:	00a62023          	sw	a0,0(a2)
     fa0:	800000b7          	lui	ra,0x80000
     fa4:	00000113          	li	sp,0
     fa8:	4020df33          	sra	t5,ra,sp
     fac:	80000eb7          	lui	t4,0x80000
     fb0:	00200193          	li	gp,2
     fb4:	a7df1463          	bne	t5,t4,21c <fail>
     fb8:	fffff097          	auipc	ra,0xfffff
     fbc:	238080e7          	jalr	568(ra) # 1f0 <update_test>
     fc0:	800000b7          	lui	ra,0x80000
     fc4:	00100113          	li	sp,1
     fc8:	4020df33          	sra	t5,ra,sp
     fcc:	c0000eb7          	lui	t4,0xc0000
     fd0:	00300193          	li	gp,3
     fd4:	a5df1463          	bne	t5,t4,21c <fail>
     fd8:	fffff097          	auipc	ra,0xfffff
     fdc:	218080e7          	jalr	536(ra) # 1f0 <update_test>
     fe0:	800000b7          	lui	ra,0x80000
     fe4:	00700113          	li	sp,7
     fe8:	4020df33          	sra	t5,ra,sp
     fec:	ff000eb7          	lui	t4,0xff000
     ff0:	00400193          	li	gp,4
     ff4:	a3df1463          	bne	t5,t4,21c <fail>
     ff8:	fffff097          	auipc	ra,0xfffff
     ffc:	1f8080e7          	jalr	504(ra) # 1f0 <update_test>
    1000:	800000b7          	lui	ra,0x80000
    1004:	00e00113          	li	sp,14
    1008:	4020df33          	sra	t5,ra,sp
    100c:	fffe0eb7          	lui	t4,0xfffe0
    1010:	00500193          	li	gp,5
    1014:	a1df1463          	bne	t5,t4,21c <fail>
    1018:	fffff097          	auipc	ra,0xfffff
    101c:	1d8080e7          	jalr	472(ra) # 1f0 <update_test>
    1020:	800000b7          	lui	ra,0x80000
    1024:	00108093          	addi	ra,ra,1 # 80000001 <SSEG+0x6ef40001>
    1028:	01f00113          	li	sp,31
    102c:	4020df33          	sra	t5,ra,sp
    1030:	fff00e93          	li	t4,-1
    1034:	00600193          	li	gp,6
    1038:	9fdf1263          	bne	t5,t4,21c <fail>
    103c:	fffff097          	auipc	ra,0xfffff
    1040:	1b4080e7          	jalr	436(ra) # 1f0 <update_test>
    1044:	800000b7          	lui	ra,0x80000
    1048:	fff08093          	addi	ra,ra,-1 # 7fffffff <SSEG+0x6ef3ffff>
    104c:	00000113          	li	sp,0
    1050:	4020df33          	sra	t5,ra,sp
    1054:	80000eb7          	lui	t4,0x80000
    1058:	fffe8e93          	addi	t4,t4,-1 # 7fffffff <SSEG+0x6ef3ffff>
    105c:	00700193          	li	gp,7
    1060:	9bdf1e63          	bne	t5,t4,21c <fail>
    1064:	fffff097          	auipc	ra,0xfffff
    1068:	18c080e7          	jalr	396(ra) # 1f0 <update_test>
    106c:	800000b7          	lui	ra,0x80000
    1070:	fff08093          	addi	ra,ra,-1 # 7fffffff <SSEG+0x6ef3ffff>
    1074:	00100113          	li	sp,1
    1078:	4020df33          	sra	t5,ra,sp
    107c:	40000eb7          	lui	t4,0x40000
    1080:	fffe8e93          	addi	t4,t4,-1 # 3fffffff <SSEG+0x2ef3ffff>
    1084:	00800193          	li	gp,8
    1088:	99df1a63          	bne	t5,t4,21c <fail>
    108c:	fffff097          	auipc	ra,0xfffff
    1090:	164080e7          	jalr	356(ra) # 1f0 <update_test>
    1094:	800000b7          	lui	ra,0x80000
    1098:	fff08093          	addi	ra,ra,-1 # 7fffffff <SSEG+0x6ef3ffff>
    109c:	00700113          	li	sp,7
    10a0:	4020df33          	sra	t5,ra,sp
    10a4:	01000eb7          	lui	t4,0x1000
    10a8:	fffe8e93          	addi	t4,t4,-1 # ffffff <DELAY_CNT+0xf0bdbf>
    10ac:	00900193          	li	gp,9
    10b0:	97df1663          	bne	t5,t4,21c <fail>
    10b4:	fffff097          	auipc	ra,0xfffff
    10b8:	13c080e7          	jalr	316(ra) # 1f0 <update_test>
    10bc:	800000b7          	lui	ra,0x80000
    10c0:	fff08093          	addi	ra,ra,-1 # 7fffffff <SSEG+0x6ef3ffff>
    10c4:	00e00113          	li	sp,14
    10c8:	4020df33          	sra	t5,ra,sp
    10cc:	00020eb7          	lui	t4,0x20
    10d0:	fffe8e93          	addi	t4,t4,-1 # 1ffff <__sp+0xffff>
    10d4:	00a00193          	li	gp,10
    10d8:	95df1263          	bne	t5,t4,21c <fail>
    10dc:	fffff097          	auipc	ra,0xfffff
    10e0:	114080e7          	jalr	276(ra) # 1f0 <update_test>
    10e4:	800000b7          	lui	ra,0x80000
    10e8:	fff08093          	addi	ra,ra,-1 # 7fffffff <SSEG+0x6ef3ffff>
    10ec:	01f00113          	li	sp,31
    10f0:	4020df33          	sra	t5,ra,sp
    10f4:	00000e93          	li	t4,0
    10f8:	00b00193          	li	gp,11
    10fc:	93df1063          	bne	t5,t4,21c <fail>
    1100:	fffff097          	auipc	ra,0xfffff
    1104:	0f0080e7          	jalr	240(ra) # 1f0 <update_test>
    1108:	818180b7          	lui	ra,0x81818
    110c:	18108093          	addi	ra,ra,385 # 81818181 <SSEG+0x70758181>
    1110:	00000113          	li	sp,0
    1114:	4020df33          	sra	t5,ra,sp
    1118:	81818eb7          	lui	t4,0x81818
    111c:	181e8e93          	addi	t4,t4,385 # 81818181 <SSEG+0x70758181>
    1120:	00c00193          	li	gp,12
    1124:	8fdf1c63          	bne	t5,t4,21c <fail>
    1128:	fffff097          	auipc	ra,0xfffff
    112c:	0c8080e7          	jalr	200(ra) # 1f0 <update_test>
    1130:	818180b7          	lui	ra,0x81818
    1134:	18108093          	addi	ra,ra,385 # 81818181 <SSEG+0x70758181>
    1138:	00100113          	li	sp,1
    113c:	4020df33          	sra	t5,ra,sp
    1140:	c0c0ceb7          	lui	t4,0xc0c0c
    1144:	0c0e8e93          	addi	t4,t4,192 # c0c0c0c0 <SSEG+0xafb4c0c0>
    1148:	00d00193          	li	gp,13
    114c:	8ddf1863          	bne	t5,t4,21c <fail>
    1150:	fffff097          	auipc	ra,0xfffff
    1154:	0a0080e7          	jalr	160(ra) # 1f0 <update_test>
    1158:	818180b7          	lui	ra,0x81818
    115c:	18108093          	addi	ra,ra,385 # 81818181 <SSEG+0x70758181>
    1160:	00700113          	li	sp,7
    1164:	4020df33          	sra	t5,ra,sp
    1168:	ff030eb7          	lui	t4,0xff030
    116c:	303e8e93          	addi	t4,t4,771 # ff030303 <SSEG+0xedf70303>
    1170:	00e00193          	li	gp,14
    1174:	8bdf1463          	bne	t5,t4,21c <fail>
    1178:	fffff097          	auipc	ra,0xfffff
    117c:	078080e7          	jalr	120(ra) # 1f0 <update_test>
    1180:	818180b7          	lui	ra,0x81818
    1184:	18108093          	addi	ra,ra,385 # 81818181 <SSEG+0x70758181>
    1188:	00e00113          	li	sp,14
    118c:	4020df33          	sra	t5,ra,sp
    1190:	fffe0eb7          	lui	t4,0xfffe0
    1194:	606e8e93          	addi	t4,t4,1542 # fffe0606 <SSEG+0xeef20606>
    1198:	00f00193          	li	gp,15
    119c:	89df1063          	bne	t5,t4,21c <fail>
    11a0:	fffff097          	auipc	ra,0xfffff
    11a4:	050080e7          	jalr	80(ra) # 1f0 <update_test>
    11a8:	818180b7          	lui	ra,0x81818
    11ac:	18108093          	addi	ra,ra,385 # 81818181 <SSEG+0x70758181>
    11b0:	01f00113          	li	sp,31
    11b4:	4020df33          	sra	t5,ra,sp
    11b8:	fff00e93          	li	t4,-1
    11bc:	01000193          	li	gp,16
    11c0:	85df1e63          	bne	t5,t4,21c <fail>
    11c4:	fffff097          	auipc	ra,0xfffff
    11c8:	02c080e7          	jalr	44(ra) # 1f0 <update_test>
    11cc:	818180b7          	lui	ra,0x81818
    11d0:	18108093          	addi	ra,ra,385 # 81818181 <SSEG+0x70758181>
    11d4:	fc000113          	li	sp,-64
    11d8:	4020df33          	sra	t5,ra,sp
    11dc:	81818eb7          	lui	t4,0x81818
    11e0:	181e8e93          	addi	t4,t4,385 # 81818181 <SSEG+0x70758181>
    11e4:	01100193          	li	gp,17
    11e8:	83df1a63          	bne	t5,t4,21c <fail>
    11ec:	fffff097          	auipc	ra,0xfffff
    11f0:	004080e7          	jalr	4(ra) # 1f0 <update_test>
    11f4:	818180b7          	lui	ra,0x81818
    11f8:	18108093          	addi	ra,ra,385 # 81818181 <SSEG+0x70758181>
    11fc:	fc100113          	li	sp,-63
    1200:	4020df33          	sra	t5,ra,sp
    1204:	c0c0ceb7          	lui	t4,0xc0c0c
    1208:	0c0e8e93          	addi	t4,t4,192 # c0c0c0c0 <SSEG+0xafb4c0c0>
    120c:	01200193          	li	gp,18
    1210:	81df1663          	bne	t5,t4,21c <fail>
    1214:	fffff097          	auipc	ra,0xfffff
    1218:	fdc080e7          	jalr	-36(ra) # 1f0 <update_test>
    121c:	818180b7          	lui	ra,0x81818
    1220:	18108093          	addi	ra,ra,385 # 81818181 <SSEG+0x70758181>
    1224:	fc700113          	li	sp,-57
    1228:	4020df33          	sra	t5,ra,sp
    122c:	ff030eb7          	lui	t4,0xff030
    1230:	303e8e93          	addi	t4,t4,771 # ff030303 <SSEG+0xedf70303>
    1234:	01300193          	li	gp,19
    1238:	01df0463          	beq	t5,t4,1240 <sra_test+0x2a8>
    123c:	fe1fe06f          	j	21c <fail>
    1240:	fffff097          	auipc	ra,0xfffff
    1244:	fb0080e7          	jalr	-80(ra) # 1f0 <update_test>
    1248:	818180b7          	lui	ra,0x81818
    124c:	18108093          	addi	ra,ra,385 # 81818181 <SSEG+0x70758181>
    1250:	fce00113          	li	sp,-50
    1254:	4020df33          	sra	t5,ra,sp
    1258:	fffe0eb7          	lui	t4,0xfffe0
    125c:	606e8e93          	addi	t4,t4,1542 # fffe0606 <SSEG+0xeef20606>
    1260:	01400193          	li	gp,20
    1264:	01df0463          	beq	t5,t4,126c <sra_test+0x2d4>
    1268:	fb5fe06f          	j	21c <fail>
    126c:	fffff097          	auipc	ra,0xfffff
    1270:	f84080e7          	jalr	-124(ra) # 1f0 <update_test>
    1274:	818180b7          	lui	ra,0x81818
    1278:	18108093          	addi	ra,ra,385 # 81818181 <SSEG+0x70758181>
    127c:	fff00113          	li	sp,-1
    1280:	4020df33          	sra	t5,ra,sp
    1284:	fff00e93          	li	t4,-1
    1288:	01500193          	li	gp,21
    128c:	01df0463          	beq	t5,t4,1294 <sra_test+0x2fc>
    1290:	f8dfe06f          	j	21c <fail>
    1294:	fffff097          	auipc	ra,0xfffff
    1298:	f5c080e7          	jalr	-164(ra) # 1f0 <update_test>
    129c:	000f8067          	jr	t6

000012a0 <slt_test>:
    12a0:	00000513          	li	a0,0
    12a4:	00a62023          	sw	a0,0(a2)
    12a8:	00000093          	li	ra,0
    12ac:	00000113          	li	sp,0
    12b0:	0020af33          	slt	t5,ra,sp
    12b4:	00000e93          	li	t4,0
    12b8:	00200193          	li	gp,2
    12bc:	01df0463          	beq	t5,t4,12c4 <slt_test+0x24>
    12c0:	f5dfe06f          	j	21c <fail>
    12c4:	fffff097          	auipc	ra,0xfffff
    12c8:	f2c080e7          	jalr	-212(ra) # 1f0 <update_test>
    12cc:	00100093          	li	ra,1
    12d0:	00100113          	li	sp,1
    12d4:	0020af33          	slt	t5,ra,sp
    12d8:	00000e93          	li	t4,0
    12dc:	00300193          	li	gp,3
    12e0:	01df0463          	beq	t5,t4,12e8 <slt_test+0x48>
    12e4:	f39fe06f          	j	21c <fail>
    12e8:	fffff097          	auipc	ra,0xfffff
    12ec:	f08080e7          	jalr	-248(ra) # 1f0 <update_test>
    12f0:	00300093          	li	ra,3
    12f4:	00700113          	li	sp,7
    12f8:	0020af33          	slt	t5,ra,sp
    12fc:	00100e93          	li	t4,1
    1300:	00400193          	li	gp,4
    1304:	01df0463          	beq	t5,t4,130c <slt_test+0x6c>
    1308:	f15fe06f          	j	21c <fail>
    130c:	fffff097          	auipc	ra,0xfffff
    1310:	ee4080e7          	jalr	-284(ra) # 1f0 <update_test>
    1314:	00700093          	li	ra,7
    1318:	00300113          	li	sp,3
    131c:	0020af33          	slt	t5,ra,sp
    1320:	00000e93          	li	t4,0
    1324:	00500193          	li	gp,5
    1328:	01df0463          	beq	t5,t4,1330 <slt_test+0x90>
    132c:	ef1fe06f          	j	21c <fail>
    1330:	fffff097          	auipc	ra,0xfffff
    1334:	ec0080e7          	jalr	-320(ra) # 1f0 <update_test>
    1338:	00000093          	li	ra,0
    133c:	ffff8137          	lui	sp,0xffff8
    1340:	0020af33          	slt	t5,ra,sp
    1344:	00000e93          	li	t4,0
    1348:	00600193          	li	gp,6
    134c:	01df0463          	beq	t5,t4,1354 <slt_test+0xb4>
    1350:	ecdfe06f          	j	21c <fail>
    1354:	fffff097          	auipc	ra,0xfffff
    1358:	e9c080e7          	jalr	-356(ra) # 1f0 <update_test>
    135c:	800000b7          	lui	ra,0x80000
    1360:	00000113          	li	sp,0
    1364:	0020af33          	slt	t5,ra,sp
    1368:	00100e93          	li	t4,1
    136c:	00700193          	li	gp,7
    1370:	01df0463          	beq	t5,t4,1378 <slt_test+0xd8>
    1374:	ea9fe06f          	j	21c <fail>
    1378:	fffff097          	auipc	ra,0xfffff
    137c:	e78080e7          	jalr	-392(ra) # 1f0 <update_test>
    1380:	800000b7          	lui	ra,0x80000
    1384:	ffff8137          	lui	sp,0xffff8
    1388:	0020af33          	slt	t5,ra,sp
    138c:	00100e93          	li	t4,1
    1390:	00800193          	li	gp,8
    1394:	01df0463          	beq	t5,t4,139c <slt_test+0xfc>
    1398:	e85fe06f          	j	21c <fail>
    139c:	fffff097          	auipc	ra,0xfffff
    13a0:	e54080e7          	jalr	-428(ra) # 1f0 <update_test>
    13a4:	00000093          	li	ra,0
    13a8:	00008137          	lui	sp,0x8
    13ac:	fff10113          	addi	sp,sp,-1 # 7fff <__global_pointer$+0x38bb>
    13b0:	0020af33          	slt	t5,ra,sp
    13b4:	00100e93          	li	t4,1
    13b8:	00900193          	li	gp,9
    13bc:	01df0463          	beq	t5,t4,13c4 <slt_test+0x124>
    13c0:	e5dfe06f          	j	21c <fail>
    13c4:	fffff097          	auipc	ra,0xfffff
    13c8:	e2c080e7          	jalr	-468(ra) # 1f0 <update_test>
    13cc:	800000b7          	lui	ra,0x80000
    13d0:	fff08093          	addi	ra,ra,-1 # 7fffffff <SSEG+0x6ef3ffff>
    13d4:	00000113          	li	sp,0
    13d8:	0020af33          	slt	t5,ra,sp
    13dc:	00000e93          	li	t4,0
    13e0:	00a00193          	li	gp,10
    13e4:	01df0463          	beq	t5,t4,13ec <slt_test+0x14c>
    13e8:	e35fe06f          	j	21c <fail>
    13ec:	fffff097          	auipc	ra,0xfffff
    13f0:	e04080e7          	jalr	-508(ra) # 1f0 <update_test>
    13f4:	800000b7          	lui	ra,0x80000
    13f8:	fff08093          	addi	ra,ra,-1 # 7fffffff <SSEG+0x6ef3ffff>
    13fc:	00008137          	lui	sp,0x8
    1400:	fff10113          	addi	sp,sp,-1 # 7fff <__global_pointer$+0x38bb>
    1404:	0020af33          	slt	t5,ra,sp
    1408:	00000e93          	li	t4,0
    140c:	00b00193          	li	gp,11
    1410:	01df0463          	beq	t5,t4,1418 <slt_test+0x178>
    1414:	e09fe06f          	j	21c <fail>
    1418:	fffff097          	auipc	ra,0xfffff
    141c:	dd8080e7          	jalr	-552(ra) # 1f0 <update_test>
    1420:	800000b7          	lui	ra,0x80000
    1424:	00008137          	lui	sp,0x8
    1428:	fff10113          	addi	sp,sp,-1 # 7fff <__global_pointer$+0x38bb>
    142c:	0020af33          	slt	t5,ra,sp
    1430:	00100e93          	li	t4,1
    1434:	00c00193          	li	gp,12
    1438:	01df0463          	beq	t5,t4,1440 <slt_test+0x1a0>
    143c:	de1fe06f          	j	21c <fail>
    1440:	fffff097          	auipc	ra,0xfffff
    1444:	db0080e7          	jalr	-592(ra) # 1f0 <update_test>
    1448:	800000b7          	lui	ra,0x80000
    144c:	fff08093          	addi	ra,ra,-1 # 7fffffff <SSEG+0x6ef3ffff>
    1450:	ffff8137          	lui	sp,0xffff8
    1454:	0020af33          	slt	t5,ra,sp
    1458:	00000e93          	li	t4,0
    145c:	00d00193          	li	gp,13
    1460:	01df0463          	beq	t5,t4,1468 <slt_test+0x1c8>
    1464:	db9fe06f          	j	21c <fail>
    1468:	fffff097          	auipc	ra,0xfffff
    146c:	d88080e7          	jalr	-632(ra) # 1f0 <update_test>
    1470:	00000093          	li	ra,0
    1474:	fff00113          	li	sp,-1
    1478:	0020af33          	slt	t5,ra,sp
    147c:	00000e93          	li	t4,0
    1480:	00e00193          	li	gp,14
    1484:	01df0463          	beq	t5,t4,148c <slt_test+0x1ec>
    1488:	d95fe06f          	j	21c <fail>
    148c:	fffff097          	auipc	ra,0xfffff
    1490:	d64080e7          	jalr	-668(ra) # 1f0 <update_test>
    1494:	fff00093          	li	ra,-1
    1498:	00100113          	li	sp,1
    149c:	0020af33          	slt	t5,ra,sp
    14a0:	00100e93          	li	t4,1
    14a4:	00f00193          	li	gp,15
    14a8:	01df0463          	beq	t5,t4,14b0 <slt_test+0x210>
    14ac:	d71fe06f          	j	21c <fail>
    14b0:	fffff097          	auipc	ra,0xfffff
    14b4:	d40080e7          	jalr	-704(ra) # 1f0 <update_test>
    14b8:	fff00093          	li	ra,-1
    14bc:	fff00113          	li	sp,-1
    14c0:	0020af33          	slt	t5,ra,sp
    14c4:	00000e93          	li	t4,0
    14c8:	01000193          	li	gp,16
    14cc:	01df0463          	beq	t5,t4,14d4 <slt_test+0x234>
    14d0:	d4dfe06f          	j	21c <fail>
    14d4:	fffff097          	auipc	ra,0xfffff
    14d8:	d1c080e7          	jalr	-740(ra) # 1f0 <update_test>
    14dc:	00e00093          	li	ra,14
    14e0:	00d00113          	li	sp,13
    14e4:	0020a0b3          	slt	ra,ra,sp
    14e8:	00000e93          	li	t4,0
    14ec:	01100193          	li	gp,17
    14f0:	01d08463          	beq	ra,t4,14f8 <slt_test+0x258>
    14f4:	d29fe06f          	j	21c <fail>
    14f8:	fffff097          	auipc	ra,0xfffff
    14fc:	cf8080e7          	jalr	-776(ra) # 1f0 <update_test>
    1500:	000f8067          	jr	t6

00001504 <sltu_test>:
    1504:	00000513          	li	a0,0
    1508:	00a62023          	sw	a0,0(a2)
    150c:	00000093          	li	ra,0
    1510:	00000113          	li	sp,0
    1514:	0020bf33          	sltu	t5,ra,sp
    1518:	00000e93          	li	t4,0
    151c:	00200193          	li	gp,2
    1520:	01df0463          	beq	t5,t4,1528 <sltu_test+0x24>
    1524:	cf9fe06f          	j	21c <fail>
    1528:	fffff097          	auipc	ra,0xfffff
    152c:	cc8080e7          	jalr	-824(ra) # 1f0 <update_test>
    1530:	00100093          	li	ra,1
    1534:	00100113          	li	sp,1
    1538:	0020bf33          	sltu	t5,ra,sp
    153c:	00000e93          	li	t4,0
    1540:	00300193          	li	gp,3
    1544:	01df0463          	beq	t5,t4,154c <sltu_test+0x48>
    1548:	cd5fe06f          	j	21c <fail>
    154c:	fffff097          	auipc	ra,0xfffff
    1550:	ca4080e7          	jalr	-860(ra) # 1f0 <update_test>
    1554:	00300093          	li	ra,3
    1558:	00700113          	li	sp,7
    155c:	0020bf33          	sltu	t5,ra,sp
    1560:	00100e93          	li	t4,1
    1564:	00400193          	li	gp,4
    1568:	01df0463          	beq	t5,t4,1570 <sltu_test+0x6c>
    156c:	cb1fe06f          	j	21c <fail>
    1570:	fffff097          	auipc	ra,0xfffff
    1574:	c80080e7          	jalr	-896(ra) # 1f0 <update_test>
    1578:	00700093          	li	ra,7
    157c:	00300113          	li	sp,3
    1580:	0020bf33          	sltu	t5,ra,sp
    1584:	00000e93          	li	t4,0
    1588:	00500193          	li	gp,5
    158c:	01df0463          	beq	t5,t4,1594 <sltu_test+0x90>
    1590:	c8dfe06f          	j	21c <fail>
    1594:	fffff097          	auipc	ra,0xfffff
    1598:	c5c080e7          	jalr	-932(ra) # 1f0 <update_test>
    159c:	00000093          	li	ra,0
    15a0:	ffff8137          	lui	sp,0xffff8
    15a4:	0020bf33          	sltu	t5,ra,sp
    15a8:	00100e93          	li	t4,1
    15ac:	00600193          	li	gp,6
    15b0:	01df0463          	beq	t5,t4,15b8 <sltu_test+0xb4>
    15b4:	c69fe06f          	j	21c <fail>
    15b8:	fffff097          	auipc	ra,0xfffff
    15bc:	c38080e7          	jalr	-968(ra) # 1f0 <update_test>
    15c0:	800000b7          	lui	ra,0x80000
    15c4:	00000113          	li	sp,0
    15c8:	0020bf33          	sltu	t5,ra,sp
    15cc:	00000e93          	li	t4,0
    15d0:	00700193          	li	gp,7
    15d4:	01df0463          	beq	t5,t4,15dc <sltu_test+0xd8>
    15d8:	c45fe06f          	j	21c <fail>
    15dc:	fffff097          	auipc	ra,0xfffff
    15e0:	c14080e7          	jalr	-1004(ra) # 1f0 <update_test>
    15e4:	800000b7          	lui	ra,0x80000
    15e8:	ffff8137          	lui	sp,0xffff8
    15ec:	0020bf33          	sltu	t5,ra,sp
    15f0:	00100e93          	li	t4,1
    15f4:	00800193          	li	gp,8
    15f8:	01df0463          	beq	t5,t4,1600 <sltu_test+0xfc>
    15fc:	c21fe06f          	j	21c <fail>
    1600:	fffff097          	auipc	ra,0xfffff
    1604:	bf0080e7          	jalr	-1040(ra) # 1f0 <update_test>
    1608:	00000093          	li	ra,0
    160c:	00008137          	lui	sp,0x8
    1610:	fff10113          	addi	sp,sp,-1 # 7fff <__global_pointer$+0x38bb>
    1614:	0020bf33          	sltu	t5,ra,sp
    1618:	00100e93          	li	t4,1
    161c:	00900193          	li	gp,9
    1620:	01df0463          	beq	t5,t4,1628 <sltu_test+0x124>
    1624:	bf9fe06f          	j	21c <fail>
    1628:	fffff097          	auipc	ra,0xfffff
    162c:	bc8080e7          	jalr	-1080(ra) # 1f0 <update_test>
    1630:	800000b7          	lui	ra,0x80000
    1634:	fff08093          	addi	ra,ra,-1 # 7fffffff <SSEG+0x6ef3ffff>
    1638:	00000113          	li	sp,0
    163c:	0020bf33          	sltu	t5,ra,sp
    1640:	00000e93          	li	t4,0
    1644:	00a00193          	li	gp,10
    1648:	01df0463          	beq	t5,t4,1650 <sltu_test+0x14c>
    164c:	bd1fe06f          	j	21c <fail>
    1650:	fffff097          	auipc	ra,0xfffff
    1654:	ba0080e7          	jalr	-1120(ra) # 1f0 <update_test>
    1658:	800000b7          	lui	ra,0x80000
    165c:	fff08093          	addi	ra,ra,-1 # 7fffffff <SSEG+0x6ef3ffff>
    1660:	00008137          	lui	sp,0x8
    1664:	fff10113          	addi	sp,sp,-1 # 7fff <__global_pointer$+0x38bb>
    1668:	0020bf33          	sltu	t5,ra,sp
    166c:	00000e93          	li	t4,0
    1670:	00b00193          	li	gp,11
    1674:	01df0463          	beq	t5,t4,167c <sltu_test+0x178>
    1678:	ba5fe06f          	j	21c <fail>
    167c:	fffff097          	auipc	ra,0xfffff
    1680:	b74080e7          	jalr	-1164(ra) # 1f0 <update_test>
    1684:	800000b7          	lui	ra,0x80000
    1688:	00008137          	lui	sp,0x8
    168c:	fff10113          	addi	sp,sp,-1 # 7fff <__global_pointer$+0x38bb>
    1690:	0020bf33          	sltu	t5,ra,sp
    1694:	00000e93          	li	t4,0
    1698:	00c00193          	li	gp,12
    169c:	01df0463          	beq	t5,t4,16a4 <sltu_test+0x1a0>
    16a0:	b7dfe06f          	j	21c <fail>
    16a4:	fffff097          	auipc	ra,0xfffff
    16a8:	b4c080e7          	jalr	-1204(ra) # 1f0 <update_test>
    16ac:	800000b7          	lui	ra,0x80000
    16b0:	fff08093          	addi	ra,ra,-1 # 7fffffff <SSEG+0x6ef3ffff>
    16b4:	ffff8137          	lui	sp,0xffff8
    16b8:	0020bf33          	sltu	t5,ra,sp
    16bc:	00100e93          	li	t4,1
    16c0:	00d00193          	li	gp,13
    16c4:	01df0463          	beq	t5,t4,16cc <sltu_test+0x1c8>
    16c8:	b55fe06f          	j	21c <fail>
    16cc:	fffff097          	auipc	ra,0xfffff
    16d0:	b24080e7          	jalr	-1244(ra) # 1f0 <update_test>
    16d4:	00000093          	li	ra,0
    16d8:	fff00113          	li	sp,-1
    16dc:	0020bf33          	sltu	t5,ra,sp
    16e0:	00100e93          	li	t4,1
    16e4:	00e00193          	li	gp,14
    16e8:	01df0463          	beq	t5,t4,16f0 <sltu_test+0x1ec>
    16ec:	b31fe06f          	j	21c <fail>
    16f0:	fffff097          	auipc	ra,0xfffff
    16f4:	b00080e7          	jalr	-1280(ra) # 1f0 <update_test>
    16f8:	fff00093          	li	ra,-1
    16fc:	00100113          	li	sp,1
    1700:	0020bf33          	sltu	t5,ra,sp
    1704:	00000e93          	li	t4,0
    1708:	00f00193          	li	gp,15
    170c:	01df0463          	beq	t5,t4,1714 <sltu_test+0x210>
    1710:	b0dfe06f          	j	21c <fail>
    1714:	fffff097          	auipc	ra,0xfffff
    1718:	adc080e7          	jalr	-1316(ra) # 1f0 <update_test>
    171c:	fff00093          	li	ra,-1
    1720:	fff00113          	li	sp,-1
    1724:	0020bf33          	sltu	t5,ra,sp
    1728:	00000e93          	li	t4,0
    172c:	01000193          	li	gp,16
    1730:	01df0463          	beq	t5,t4,1738 <sltu_test+0x234>
    1734:	ae9fe06f          	j	21c <fail>
    1738:	fffff097          	auipc	ra,0xfffff
    173c:	ab8080e7          	jalr	-1352(ra) # 1f0 <update_test>
    1740:	00e00093          	li	ra,14
    1744:	00d00113          	li	sp,13
    1748:	0020b0b3          	sltu	ra,ra,sp
    174c:	00000e93          	li	t4,0
    1750:	01100193          	li	gp,17
    1754:	01d08463          	beq	ra,t4,175c <sltu_test+0x258>
    1758:	ac5fe06f          	j	21c <fail>
    175c:	fffff097          	auipc	ra,0xfffff
    1760:	a94080e7          	jalr	-1388(ra) # 1f0 <update_test>
    1764:	000f8067          	jr	t6

00001768 <addi_test>:
    1768:	00000513          	li	a0,0
    176c:	00a62023          	sw	a0,0(a2)
    1770:	00000093          	li	ra,0
    1774:	00008f13          	mv	t5,ra
    1778:	00000e93          	li	t4,0
    177c:	00200193          	li	gp,2
    1780:	01df0463          	beq	t5,t4,1788 <addi_test+0x20>
    1784:	a99fe06f          	j	21c <fail>
    1788:	fffff097          	auipc	ra,0xfffff
    178c:	a68080e7          	jalr	-1432(ra) # 1f0 <update_test>
    1790:	00100093          	li	ra,1
    1794:	00108f13          	addi	t5,ra,1
    1798:	00200e93          	li	t4,2
    179c:	00300193          	li	gp,3
    17a0:	01df0463          	beq	t5,t4,17a8 <addi_test+0x40>
    17a4:	a79fe06f          	j	21c <fail>
    17a8:	fffff097          	auipc	ra,0xfffff
    17ac:	a48080e7          	jalr	-1464(ra) # 1f0 <update_test>
    17b0:	00300093          	li	ra,3
    17b4:	00708f13          	addi	t5,ra,7
    17b8:	00a00e93          	li	t4,10
    17bc:	00400193          	li	gp,4
    17c0:	01df0463          	beq	t5,t4,17c8 <addi_test+0x60>
    17c4:	a59fe06f          	j	21c <fail>
    17c8:	fffff097          	auipc	ra,0xfffff
    17cc:	a28080e7          	jalr	-1496(ra) # 1f0 <update_test>
    17d0:	00000093          	li	ra,0
    17d4:	80008f13          	addi	t5,ra,-2048
    17d8:	80000e93          	li	t4,-2048
    17dc:	00500193          	li	gp,5
    17e0:	01df0463          	beq	t5,t4,17e8 <addi_test+0x80>
    17e4:	a39fe06f          	j	21c <fail>
    17e8:	fffff097          	auipc	ra,0xfffff
    17ec:	a08080e7          	jalr	-1528(ra) # 1f0 <update_test>
    17f0:	800000b7          	lui	ra,0x80000
    17f4:	00008f13          	mv	t5,ra
    17f8:	80000eb7          	lui	t4,0x80000
    17fc:	00600193          	li	gp,6
    1800:	01df0463          	beq	t5,t4,1808 <addi_test+0xa0>
    1804:	a19fe06f          	j	21c <fail>
    1808:	fffff097          	auipc	ra,0xfffff
    180c:	9e8080e7          	jalr	-1560(ra) # 1f0 <update_test>
    1810:	800000b7          	lui	ra,0x80000
    1814:	80008f13          	addi	t5,ra,-2048 # 7ffff800 <SSEG+0x6ef3f800>
    1818:	80000eb7          	lui	t4,0x80000
    181c:	800e8e93          	addi	t4,t4,-2048 # 7ffff800 <SSEG+0x6ef3f800>
    1820:	00700193          	li	gp,7
    1824:	01df0463          	beq	t5,t4,182c <addi_test+0xc4>
    1828:	9f5fe06f          	j	21c <fail>
    182c:	fffff097          	auipc	ra,0xfffff
    1830:	9c4080e7          	jalr	-1596(ra) # 1f0 <update_test>
    1834:	00000093          	li	ra,0
    1838:	7ff08f13          	addi	t5,ra,2047
    183c:	7ff00e93          	li	t4,2047
    1840:	00800193          	li	gp,8
    1844:	01df0463          	beq	t5,t4,184c <addi_test+0xe4>
    1848:	9d5fe06f          	j	21c <fail>
    184c:	fffff097          	auipc	ra,0xfffff
    1850:	9a4080e7          	jalr	-1628(ra) # 1f0 <update_test>
    1854:	800000b7          	lui	ra,0x80000
    1858:	fff08093          	addi	ra,ra,-1 # 7fffffff <SSEG+0x6ef3ffff>
    185c:	00008f13          	mv	t5,ra
    1860:	80000eb7          	lui	t4,0x80000
    1864:	fffe8e93          	addi	t4,t4,-1 # 7fffffff <SSEG+0x6ef3ffff>
    1868:	00900193          	li	gp,9
    186c:	01df0463          	beq	t5,t4,1874 <addi_test+0x10c>
    1870:	9adfe06f          	j	21c <fail>
    1874:	fffff097          	auipc	ra,0xfffff
    1878:	97c080e7          	jalr	-1668(ra) # 1f0 <update_test>
    187c:	800000b7          	lui	ra,0x80000
    1880:	fff08093          	addi	ra,ra,-1 # 7fffffff <SSEG+0x6ef3ffff>
    1884:	7ff08f13          	addi	t5,ra,2047
    1888:	80000eb7          	lui	t4,0x80000
    188c:	7fee8e93          	addi	t4,t4,2046 # 800007fe <SSEG+0x6ef407fe>
    1890:	00a00193          	li	gp,10
    1894:	01df0463          	beq	t5,t4,189c <addi_test+0x134>
    1898:	985fe06f          	j	21c <fail>
    189c:	fffff097          	auipc	ra,0xfffff
    18a0:	954080e7          	jalr	-1708(ra) # 1f0 <update_test>
    18a4:	800000b7          	lui	ra,0x80000
    18a8:	7ff08f13          	addi	t5,ra,2047 # 800007ff <SSEG+0x6ef407ff>
    18ac:	80000eb7          	lui	t4,0x80000
    18b0:	7ffe8e93          	addi	t4,t4,2047 # 800007ff <SSEG+0x6ef407ff>
    18b4:	00b00193          	li	gp,11
    18b8:	01df0463          	beq	t5,t4,18c0 <addi_test+0x158>
    18bc:	961fe06f          	j	21c <fail>
    18c0:	fffff097          	auipc	ra,0xfffff
    18c4:	930080e7          	jalr	-1744(ra) # 1f0 <update_test>
    18c8:	800000b7          	lui	ra,0x80000
    18cc:	fff08093          	addi	ra,ra,-1 # 7fffffff <SSEG+0x6ef3ffff>
    18d0:	80008f13          	addi	t5,ra,-2048
    18d4:	7ffffeb7          	lui	t4,0x7ffff
    18d8:	7ffe8e93          	addi	t4,t4,2047 # 7ffff7ff <SSEG+0x6ef3f7ff>
    18dc:	00c00193          	li	gp,12
    18e0:	01df0463          	beq	t5,t4,18e8 <addi_test+0x180>
    18e4:	939fe06f          	j	21c <fail>
    18e8:	fffff097          	auipc	ra,0xfffff
    18ec:	908080e7          	jalr	-1784(ra) # 1f0 <update_test>
    18f0:	00000093          	li	ra,0
    18f4:	fff08f13          	addi	t5,ra,-1
    18f8:	fff00e93          	li	t4,-1
    18fc:	00d00193          	li	gp,13
    1900:	01df0463          	beq	t5,t4,1908 <addi_test+0x1a0>
    1904:	919fe06f          	j	21c <fail>
    1908:	fffff097          	auipc	ra,0xfffff
    190c:	8e8080e7          	jalr	-1816(ra) # 1f0 <update_test>
    1910:	fff00093          	li	ra,-1
    1914:	00108f13          	addi	t5,ra,1
    1918:	00000e93          	li	t4,0
    191c:	00e00193          	li	gp,14
    1920:	01df0463          	beq	t5,t4,1928 <addi_test+0x1c0>
    1924:	8f9fe06f          	j	21c <fail>
    1928:	fffff097          	auipc	ra,0xfffff
    192c:	8c8080e7          	jalr	-1848(ra) # 1f0 <update_test>
    1930:	fff00093          	li	ra,-1
    1934:	fff08f13          	addi	t5,ra,-1
    1938:	ffe00e93          	li	t4,-2
    193c:	00f00193          	li	gp,15
    1940:	01df0463          	beq	t5,t4,1948 <addi_test+0x1e0>
    1944:	8d9fe06f          	j	21c <fail>
    1948:	fffff097          	auipc	ra,0xfffff
    194c:	8a8080e7          	jalr	-1880(ra) # 1f0 <update_test>
    1950:	800000b7          	lui	ra,0x80000
    1954:	fff08093          	addi	ra,ra,-1 # 7fffffff <SSEG+0x6ef3ffff>
    1958:	00108f13          	addi	t5,ra,1
    195c:	80000eb7          	lui	t4,0x80000
    1960:	01000193          	li	gp,16
    1964:	01df0463          	beq	t5,t4,196c <addi_test+0x204>
    1968:	8b5fe06f          	j	21c <fail>
    196c:	fffff097          	auipc	ra,0xfffff
    1970:	884080e7          	jalr	-1916(ra) # 1f0 <update_test>
    1974:	00d00093          	li	ra,13
    1978:	00b08093          	addi	ra,ra,11
    197c:	01800e93          	li	t4,24
    1980:	01100193          	li	gp,17
    1984:	01d08463          	beq	ra,t4,198c <addi_test+0x224>
    1988:	895fe06f          	j	21c <fail>
    198c:	fffff097          	auipc	ra,0xfffff
    1990:	864080e7          	jalr	-1948(ra) # 1f0 <update_test>
    1994:	000f8067          	jr	t6

00001998 <andi_test>:
    1998:	00000513          	li	a0,0
    199c:	00a62023          	sw	a0,0(a2)
    19a0:	ff0100b7          	lui	ra,0xff010
    19a4:	f0008093          	addi	ra,ra,-256 # ff00ff00 <SSEG+0xedf4ff00>
    19a8:	f0f0ff13          	andi	t5,ra,-241
    19ac:	ff010eb7          	lui	t4,0xff010
    19b0:	f00e8e93          	addi	t4,t4,-256 # ff00ff00 <SSEG+0xedf4ff00>
    19b4:	00200193          	li	gp,2
    19b8:	01df0463          	beq	t5,t4,19c0 <andi_test+0x28>
    19bc:	861fe06f          	j	21c <fail>
    19c0:	fffff097          	auipc	ra,0xfffff
    19c4:	830080e7          	jalr	-2000(ra) # 1f0 <update_test>
    19c8:	0ff010b7          	lui	ra,0xff01
    19cc:	ff008093          	addi	ra,ra,-16 # ff00ff0 <DELAY_CNT+0xfe0cdb0>
    19d0:	0f00ff13          	andi	t5,ra,240
    19d4:	0f000e93          	li	t4,240
    19d8:	00300193          	li	gp,3
    19dc:	01df0463          	beq	t5,t4,19e4 <andi_test+0x4c>
    19e0:	83dfe06f          	j	21c <fail>
    19e4:	fffff097          	auipc	ra,0xfffff
    19e8:	80c080e7          	jalr	-2036(ra) # 1f0 <update_test>
    19ec:	00ff00b7          	lui	ra,0xff0
    19f0:	0ff08093          	addi	ra,ra,255 # ff00ff <DELAY_CNT+0xefbebf>
    19f4:	70f0ff13          	andi	t5,ra,1807
    19f8:	00f00e93          	li	t4,15
    19fc:	00400193          	li	gp,4
    1a00:	01df0463          	beq	t5,t4,1a08 <andi_test+0x70>
    1a04:	819fe06f          	j	21c <fail>
    1a08:	ffffe097          	auipc	ra,0xffffe
    1a0c:	7e8080e7          	jalr	2024(ra) # 1f0 <update_test>
    1a10:	f00ff0b7          	lui	ra,0xf00ff
    1a14:	00f08093          	addi	ra,ra,15 # f00ff00f <SSEG+0xdf03f00f>
    1a18:	0f00ff13          	andi	t5,ra,240
    1a1c:	00000e93          	li	t4,0
    1a20:	00500193          	li	gp,5
    1a24:	01df0463          	beq	t5,t4,1a2c <andi_test+0x94>
    1a28:	ff4fe06f          	j	21c <fail>
    1a2c:	ffffe097          	auipc	ra,0xffffe
    1a30:	7c4080e7          	jalr	1988(ra) # 1f0 <update_test>
    1a34:	ff0100b7          	lui	ra,0xff010
    1a38:	f0008093          	addi	ra,ra,-256 # ff00ff00 <SSEG+0xedf4ff00>
    1a3c:	0f00f093          	andi	ra,ra,240
    1a40:	00000e93          	li	t4,0
    1a44:	00600193          	li	gp,6
    1a48:	01d08463          	beq	ra,t4,1a50 <andi_test+0xb8>
    1a4c:	fd0fe06f          	j	21c <fail>
    1a50:	ffffe097          	auipc	ra,0xffffe
    1a54:	7a0080e7          	jalr	1952(ra) # 1f0 <update_test>
    1a58:	000f8067          	jr	t6

00001a5c <ori_test>:
    1a5c:	00000513          	li	a0,0
    1a60:	00a62023          	sw	a0,0(a2)
    1a64:	ff0100b7          	lui	ra,0xff010
    1a68:	f0008093          	addi	ra,ra,-256 # ff00ff00 <SSEG+0xedf4ff00>
    1a6c:	f0f0ef13          	ori	t5,ra,-241
    1a70:	f0f00e93          	li	t4,-241
    1a74:	00200193          	li	gp,2
    1a78:	01df0463          	beq	t5,t4,1a80 <ori_test+0x24>
    1a7c:	fa0fe06f          	j	21c <fail>
    1a80:	ffffe097          	auipc	ra,0xffffe
    1a84:	770080e7          	jalr	1904(ra) # 1f0 <update_test>
    1a88:	0ff010b7          	lui	ra,0xff01
    1a8c:	ff008093          	addi	ra,ra,-16 # ff00ff0 <DELAY_CNT+0xfe0cdb0>
    1a90:	0f00ef13          	ori	t5,ra,240
    1a94:	0ff01eb7          	lui	t4,0xff01
    1a98:	ff0e8e93          	addi	t4,t4,-16 # ff00ff0 <DELAY_CNT+0xfe0cdb0>
    1a9c:	00300193          	li	gp,3
    1aa0:	01df0463          	beq	t5,t4,1aa8 <ori_test+0x4c>
    1aa4:	f78fe06f          	j	21c <fail>
    1aa8:	ffffe097          	auipc	ra,0xffffe
    1aac:	748080e7          	jalr	1864(ra) # 1f0 <update_test>
    1ab0:	00ff00b7          	lui	ra,0xff0
    1ab4:	0ff08093          	addi	ra,ra,255 # ff00ff <DELAY_CNT+0xefbebf>
    1ab8:	70f0ef13          	ori	t5,ra,1807
    1abc:	00ff0eb7          	lui	t4,0xff0
    1ac0:	7ffe8e93          	addi	t4,t4,2047 # ff07ff <DELAY_CNT+0xefc5bf>
    1ac4:	00400193          	li	gp,4
    1ac8:	01df0463          	beq	t5,t4,1ad0 <ori_test+0x74>
    1acc:	f50fe06f          	j	21c <fail>
    1ad0:	ffffe097          	auipc	ra,0xffffe
    1ad4:	720080e7          	jalr	1824(ra) # 1f0 <update_test>
    1ad8:	f00ff0b7          	lui	ra,0xf00ff
    1adc:	00f08093          	addi	ra,ra,15 # f00ff00f <SSEG+0xdf03f00f>
    1ae0:	0f00ef13          	ori	t5,ra,240
    1ae4:	f00ffeb7          	lui	t4,0xf00ff
    1ae8:	0ffe8e93          	addi	t4,t4,255 # f00ff0ff <SSEG+0xdf03f0ff>
    1aec:	00500193          	li	gp,5
    1af0:	01df0463          	beq	t5,t4,1af8 <ori_test+0x9c>
    1af4:	f28fe06f          	j	21c <fail>
    1af8:	ffffe097          	auipc	ra,0xffffe
    1afc:	6f8080e7          	jalr	1784(ra) # 1f0 <update_test>
    1b00:	ff0100b7          	lui	ra,0xff010
    1b04:	f0008093          	addi	ra,ra,-256 # ff00ff00 <SSEG+0xedf4ff00>
    1b08:	0f00e093          	ori	ra,ra,240
    1b0c:	ff010eb7          	lui	t4,0xff010
    1b10:	ff0e8e93          	addi	t4,t4,-16 # ff00fff0 <SSEG+0xedf4fff0>
    1b14:	00600193          	li	gp,6
    1b18:	01d08463          	beq	ra,t4,1b20 <ori_test+0xc4>
    1b1c:	f00fe06f          	j	21c <fail>
    1b20:	ffffe097          	auipc	ra,0xffffe
    1b24:	6d0080e7          	jalr	1744(ra) # 1f0 <update_test>
    1b28:	000f8067          	jr	t6

00001b2c <xori_test>:
    1b2c:	00000513          	li	a0,0
    1b30:	00a62023          	sw	a0,0(a2)
    1b34:	00ff10b7          	lui	ra,0xff1
    1b38:	f0008093          	addi	ra,ra,-256 # ff0f00 <DELAY_CNT+0xefccc0>
    1b3c:	f0f0cf13          	xori	t5,ra,-241
    1b40:	ff00feb7          	lui	t4,0xff00f
    1b44:	00fe8e93          	addi	t4,t4,15 # ff00f00f <SSEG+0xedf4f00f>
    1b48:	00200193          	li	gp,2
    1b4c:	01df0463          	beq	t5,t4,1b54 <xori_test+0x28>
    1b50:	eccfe06f          	j	21c <fail>
    1b54:	ffffe097          	auipc	ra,0xffffe
    1b58:	69c080e7          	jalr	1692(ra) # 1f0 <update_test>
    1b5c:	0ff010b7          	lui	ra,0xff01
    1b60:	ff008093          	addi	ra,ra,-16 # ff00ff0 <DELAY_CNT+0xfe0cdb0>
    1b64:	0f00cf13          	xori	t5,ra,240
    1b68:	0ff01eb7          	lui	t4,0xff01
    1b6c:	f00e8e93          	addi	t4,t4,-256 # ff00f00 <DELAY_CNT+0xfe0ccc0>
    1b70:	00300193          	li	gp,3
    1b74:	01df0463          	beq	t5,t4,1b7c <xori_test+0x50>
    1b78:	ea4fe06f          	j	21c <fail>
    1b7c:	ffffe097          	auipc	ra,0xffffe
    1b80:	674080e7          	jalr	1652(ra) # 1f0 <update_test>
    1b84:	00ff10b7          	lui	ra,0xff1
    1b88:	8ff08093          	addi	ra,ra,-1793 # ff08ff <DELAY_CNT+0xefc6bf>
    1b8c:	70f0cf13          	xori	t5,ra,1807
    1b90:	00ff1eb7          	lui	t4,0xff1
    1b94:	ff0e8e93          	addi	t4,t4,-16 # ff0ff0 <DELAY_CNT+0xefcdb0>
    1b98:	00400193          	li	gp,4
    1b9c:	01df0463          	beq	t5,t4,1ba4 <xori_test+0x78>
    1ba0:	e7cfe06f          	j	21c <fail>
    1ba4:	ffffe097          	auipc	ra,0xffffe
    1ba8:	64c080e7          	jalr	1612(ra) # 1f0 <update_test>
    1bac:	f00ff0b7          	lui	ra,0xf00ff
    1bb0:	00f08093          	addi	ra,ra,15 # f00ff00f <SSEG+0xdf03f00f>
    1bb4:	0f00cf13          	xori	t5,ra,240
    1bb8:	f00ffeb7          	lui	t4,0xf00ff
    1bbc:	0ffe8e93          	addi	t4,t4,255 # f00ff0ff <SSEG+0xdf03f0ff>
    1bc0:	00500193          	li	gp,5
    1bc4:	01df0463          	beq	t5,t4,1bcc <xori_test+0xa0>
    1bc8:	e54fe06f          	j	21c <fail>
    1bcc:	ffffe097          	auipc	ra,0xffffe
    1bd0:	624080e7          	jalr	1572(ra) # 1f0 <update_test>
    1bd4:	ff00f0b7          	lui	ra,0xff00f
    1bd8:	70008093          	addi	ra,ra,1792 # ff00f700 <SSEG+0xedf4f700>
    1bdc:	70f0c093          	xori	ra,ra,1807
    1be0:	ff00feb7          	lui	t4,0xff00f
    1be4:	00fe8e93          	addi	t4,t4,15 # ff00f00f <SSEG+0xedf4f00f>
    1be8:	00600193          	li	gp,6
    1bec:	01d08463          	beq	ra,t4,1bf4 <xori_test+0xc8>
    1bf0:	e2cfe06f          	j	21c <fail>
    1bf4:	ffffe097          	auipc	ra,0xffffe
    1bf8:	5fc080e7          	jalr	1532(ra) # 1f0 <update_test>
    1bfc:	000f8067          	jr	t6

00001c00 <slli_test>:
    1c00:	00000513          	li	a0,0
    1c04:	00a62023          	sw	a0,0(a2)
    1c08:	00100093          	li	ra,1
    1c0c:	00009f13          	slli	t5,ra,0x0
    1c10:	00100e93          	li	t4,1
    1c14:	00200193          	li	gp,2
    1c18:	01df0463          	beq	t5,t4,1c20 <slli_test+0x20>
    1c1c:	e00fe06f          	j	21c <fail>
    1c20:	ffffe097          	auipc	ra,0xffffe
    1c24:	5d0080e7          	jalr	1488(ra) # 1f0 <update_test>
    1c28:	00100093          	li	ra,1
    1c2c:	00109f13          	slli	t5,ra,0x1
    1c30:	00200e93          	li	t4,2
    1c34:	00300193          	li	gp,3
    1c38:	01df0463          	beq	t5,t4,1c40 <slli_test+0x40>
    1c3c:	de0fe06f          	j	21c <fail>
    1c40:	ffffe097          	auipc	ra,0xffffe
    1c44:	5b0080e7          	jalr	1456(ra) # 1f0 <update_test>
    1c48:	00100093          	li	ra,1
    1c4c:	00709f13          	slli	t5,ra,0x7
    1c50:	08000e93          	li	t4,128
    1c54:	00400193          	li	gp,4
    1c58:	01df0463          	beq	t5,t4,1c60 <slli_test+0x60>
    1c5c:	dc0fe06f          	j	21c <fail>
    1c60:	ffffe097          	auipc	ra,0xffffe
    1c64:	590080e7          	jalr	1424(ra) # 1f0 <update_test>
    1c68:	00100093          	li	ra,1
    1c6c:	00e09f13          	slli	t5,ra,0xe
    1c70:	00004eb7          	lui	t4,0x4
    1c74:	00500193          	li	gp,5
    1c78:	01df0463          	beq	t5,t4,1c80 <slli_test+0x80>
    1c7c:	da0fe06f          	j	21c <fail>
    1c80:	ffffe097          	auipc	ra,0xffffe
    1c84:	570080e7          	jalr	1392(ra) # 1f0 <update_test>
    1c88:	00100093          	li	ra,1
    1c8c:	01f09f13          	slli	t5,ra,0x1f
    1c90:	80000eb7          	lui	t4,0x80000
    1c94:	00600193          	li	gp,6
    1c98:	01df0463          	beq	t5,t4,1ca0 <slli_test+0xa0>
    1c9c:	d80fe06f          	j	21c <fail>
    1ca0:	ffffe097          	auipc	ra,0xffffe
    1ca4:	550080e7          	jalr	1360(ra) # 1f0 <update_test>
    1ca8:	fff00093          	li	ra,-1
    1cac:	00009f13          	slli	t5,ra,0x0
    1cb0:	fff00e93          	li	t4,-1
    1cb4:	00700193          	li	gp,7
    1cb8:	01df0463          	beq	t5,t4,1cc0 <slli_test+0xc0>
    1cbc:	d60fe06f          	j	21c <fail>
    1cc0:	ffffe097          	auipc	ra,0xffffe
    1cc4:	530080e7          	jalr	1328(ra) # 1f0 <update_test>
    1cc8:	fff00093          	li	ra,-1
    1ccc:	00109f13          	slli	t5,ra,0x1
    1cd0:	ffe00e93          	li	t4,-2
    1cd4:	00800193          	li	gp,8
    1cd8:	01df0463          	beq	t5,t4,1ce0 <slli_test+0xe0>
    1cdc:	d40fe06f          	j	21c <fail>
    1ce0:	ffffe097          	auipc	ra,0xffffe
    1ce4:	510080e7          	jalr	1296(ra) # 1f0 <update_test>
    1ce8:	fff00093          	li	ra,-1
    1cec:	00709f13          	slli	t5,ra,0x7
    1cf0:	f8000e93          	li	t4,-128
    1cf4:	00900193          	li	gp,9
    1cf8:	01df0463          	beq	t5,t4,1d00 <slli_test+0x100>
    1cfc:	d20fe06f          	j	21c <fail>
    1d00:	ffffe097          	auipc	ra,0xffffe
    1d04:	4f0080e7          	jalr	1264(ra) # 1f0 <update_test>
    1d08:	fff00093          	li	ra,-1
    1d0c:	00e09f13          	slli	t5,ra,0xe
    1d10:	ffffceb7          	lui	t4,0xffffc
    1d14:	00a00193          	li	gp,10
    1d18:	01df0463          	beq	t5,t4,1d20 <slli_test+0x120>
    1d1c:	d00fe06f          	j	21c <fail>
    1d20:	ffffe097          	auipc	ra,0xffffe
    1d24:	4d0080e7          	jalr	1232(ra) # 1f0 <update_test>
    1d28:	fff00093          	li	ra,-1
    1d2c:	01f09f13          	slli	t5,ra,0x1f
    1d30:	80000eb7          	lui	t4,0x80000
    1d34:	00b00193          	li	gp,11
    1d38:	01df0463          	beq	t5,t4,1d40 <slli_test+0x140>
    1d3c:	ce0fe06f          	j	21c <fail>
    1d40:	ffffe097          	auipc	ra,0xffffe
    1d44:	4b0080e7          	jalr	1200(ra) # 1f0 <update_test>
    1d48:	212120b7          	lui	ra,0x21212
    1d4c:	12108093          	addi	ra,ra,289 # 21212121 <SSEG+0x10152121>
    1d50:	00009f13          	slli	t5,ra,0x0
    1d54:	21212eb7          	lui	t4,0x21212
    1d58:	121e8e93          	addi	t4,t4,289 # 21212121 <SSEG+0x10152121>
    1d5c:	00c00193          	li	gp,12
    1d60:	01df0463          	beq	t5,t4,1d68 <slli_test+0x168>
    1d64:	cb8fe06f          	j	21c <fail>
    1d68:	ffffe097          	auipc	ra,0xffffe
    1d6c:	488080e7          	jalr	1160(ra) # 1f0 <update_test>
    1d70:	212120b7          	lui	ra,0x21212
    1d74:	12108093          	addi	ra,ra,289 # 21212121 <SSEG+0x10152121>
    1d78:	00109f13          	slli	t5,ra,0x1
    1d7c:	42424eb7          	lui	t4,0x42424
    1d80:	242e8e93          	addi	t4,t4,578 # 42424242 <SSEG+0x31364242>
    1d84:	00d00193          	li	gp,13
    1d88:	01df0463          	beq	t5,t4,1d90 <slli_test+0x190>
    1d8c:	c90fe06f          	j	21c <fail>
    1d90:	ffffe097          	auipc	ra,0xffffe
    1d94:	460080e7          	jalr	1120(ra) # 1f0 <update_test>
    1d98:	212120b7          	lui	ra,0x21212
    1d9c:	12108093          	addi	ra,ra,289 # 21212121 <SSEG+0x10152121>
    1da0:	00709f13          	slli	t5,ra,0x7
    1da4:	90909eb7          	lui	t4,0x90909
    1da8:	080e8e93          	addi	t4,t4,128 # 90909080 <SSEG+0x7f849080>
    1dac:	00e00193          	li	gp,14
    1db0:	01df0463          	beq	t5,t4,1db8 <slli_test+0x1b8>
    1db4:	c68fe06f          	j	21c <fail>
    1db8:	ffffe097          	auipc	ra,0xffffe
    1dbc:	438080e7          	jalr	1080(ra) # 1f0 <update_test>
    1dc0:	212120b7          	lui	ra,0x21212
    1dc4:	12108093          	addi	ra,ra,289 # 21212121 <SSEG+0x10152121>
    1dc8:	00e09f13          	slli	t5,ra,0xe
    1dcc:	48484eb7          	lui	t4,0x48484
    1dd0:	00f00193          	li	gp,15
    1dd4:	01df0463          	beq	t5,t4,1ddc <slli_test+0x1dc>
    1dd8:	c44fe06f          	j	21c <fail>
    1ddc:	ffffe097          	auipc	ra,0xffffe
    1de0:	414080e7          	jalr	1044(ra) # 1f0 <update_test>
    1de4:	212120b7          	lui	ra,0x21212
    1de8:	12108093          	addi	ra,ra,289 # 21212121 <SSEG+0x10152121>
    1dec:	01f09f13          	slli	t5,ra,0x1f
    1df0:	80000eb7          	lui	t4,0x80000
    1df4:	01000193          	li	gp,16
    1df8:	01df0463          	beq	t5,t4,1e00 <slli_test+0x200>
    1dfc:	c20fe06f          	j	21c <fail>
    1e00:	ffffe097          	auipc	ra,0xffffe
    1e04:	3f0080e7          	jalr	1008(ra) # 1f0 <update_test>
    1e08:	000f8067          	jr	t6

00001e0c <srli_test>:
    1e0c:	00000513          	li	a0,0
    1e10:	00a62023          	sw	a0,0(a2)
    1e14:	800000b7          	lui	ra,0x80000
    1e18:	0000df13          	srli	t5,ra,0x0
    1e1c:	80000eb7          	lui	t4,0x80000
    1e20:	00200193          	li	gp,2
    1e24:	01df0463          	beq	t5,t4,1e2c <srli_test+0x20>
    1e28:	bf4fe06f          	j	21c <fail>
    1e2c:	ffffe097          	auipc	ra,0xffffe
    1e30:	3c4080e7          	jalr	964(ra) # 1f0 <update_test>
    1e34:	800000b7          	lui	ra,0x80000
    1e38:	0010df13          	srli	t5,ra,0x1
    1e3c:	40000eb7          	lui	t4,0x40000
    1e40:	00300193          	li	gp,3
    1e44:	01df0463          	beq	t5,t4,1e4c <srli_test+0x40>
    1e48:	bd4fe06f          	j	21c <fail>
    1e4c:	ffffe097          	auipc	ra,0xffffe
    1e50:	3a4080e7          	jalr	932(ra) # 1f0 <update_test>
    1e54:	800000b7          	lui	ra,0x80000
    1e58:	0070df13          	srli	t5,ra,0x7
    1e5c:	01000eb7          	lui	t4,0x1000
    1e60:	00400193          	li	gp,4
    1e64:	01df0463          	beq	t5,t4,1e6c <srli_test+0x60>
    1e68:	bb4fe06f          	j	21c <fail>
    1e6c:	ffffe097          	auipc	ra,0xffffe
    1e70:	384080e7          	jalr	900(ra) # 1f0 <update_test>
    1e74:	800000b7          	lui	ra,0x80000
    1e78:	00e0df13          	srli	t5,ra,0xe
    1e7c:	00020eb7          	lui	t4,0x20
    1e80:	00500193          	li	gp,5
    1e84:	01df0463          	beq	t5,t4,1e8c <srli_test+0x80>
    1e88:	b94fe06f          	j	21c <fail>
    1e8c:	ffffe097          	auipc	ra,0xffffe
    1e90:	364080e7          	jalr	868(ra) # 1f0 <update_test>
    1e94:	800000b7          	lui	ra,0x80000
    1e98:	00108093          	addi	ra,ra,1 # 80000001 <SSEG+0x6ef40001>
    1e9c:	01f0df13          	srli	t5,ra,0x1f
    1ea0:	00100e93          	li	t4,1
    1ea4:	00600193          	li	gp,6
    1ea8:	01df0463          	beq	t5,t4,1eb0 <srli_test+0xa4>
    1eac:	b70fe06f          	j	21c <fail>
    1eb0:	ffffe097          	auipc	ra,0xffffe
    1eb4:	340080e7          	jalr	832(ra) # 1f0 <update_test>
    1eb8:	fff00093          	li	ra,-1
    1ebc:	0000df13          	srli	t5,ra,0x0
    1ec0:	fff00e93          	li	t4,-1
    1ec4:	00700193          	li	gp,7
    1ec8:	01df0463          	beq	t5,t4,1ed0 <srli_test+0xc4>
    1ecc:	b50fe06f          	j	21c <fail>
    1ed0:	ffffe097          	auipc	ra,0xffffe
    1ed4:	320080e7          	jalr	800(ra) # 1f0 <update_test>
    1ed8:	fff00093          	li	ra,-1
    1edc:	0010df13          	srli	t5,ra,0x1
    1ee0:	80000eb7          	lui	t4,0x80000
    1ee4:	fffe8e93          	addi	t4,t4,-1 # 7fffffff <SSEG+0x6ef3ffff>
    1ee8:	00800193          	li	gp,8
    1eec:	01df0463          	beq	t5,t4,1ef4 <srli_test+0xe8>
    1ef0:	b2cfe06f          	j	21c <fail>
    1ef4:	ffffe097          	auipc	ra,0xffffe
    1ef8:	2fc080e7          	jalr	764(ra) # 1f0 <update_test>
    1efc:	fff00093          	li	ra,-1
    1f00:	0070df13          	srli	t5,ra,0x7
    1f04:	02000eb7          	lui	t4,0x2000
    1f08:	fffe8e93          	addi	t4,t4,-1 # 1ffffff <DELAY_CNT+0x1f0bdbf>
    1f0c:	00900193          	li	gp,9
    1f10:	01df0463          	beq	t5,t4,1f18 <srli_test+0x10c>
    1f14:	b08fe06f          	j	21c <fail>
    1f18:	ffffe097          	auipc	ra,0xffffe
    1f1c:	2d8080e7          	jalr	728(ra) # 1f0 <update_test>
    1f20:	fff00093          	li	ra,-1
    1f24:	00e0df13          	srli	t5,ra,0xe
    1f28:	00040eb7          	lui	t4,0x40
    1f2c:	fffe8e93          	addi	t4,t4,-1 # 3ffff <__sp+0x2ffff>
    1f30:	00a00193          	li	gp,10
    1f34:	01df0463          	beq	t5,t4,1f3c <srli_test+0x130>
    1f38:	ae4fe06f          	j	21c <fail>
    1f3c:	ffffe097          	auipc	ra,0xffffe
    1f40:	2b4080e7          	jalr	692(ra) # 1f0 <update_test>
    1f44:	fff00093          	li	ra,-1
    1f48:	01f0df13          	srli	t5,ra,0x1f
    1f4c:	00100e93          	li	t4,1
    1f50:	00b00193          	li	gp,11
    1f54:	01df0463          	beq	t5,t4,1f5c <srli_test+0x150>
    1f58:	ac4fe06f          	j	21c <fail>
    1f5c:	ffffe097          	auipc	ra,0xffffe
    1f60:	294080e7          	jalr	660(ra) # 1f0 <update_test>
    1f64:	212120b7          	lui	ra,0x21212
    1f68:	12108093          	addi	ra,ra,289 # 21212121 <SSEG+0x10152121>
    1f6c:	0000df13          	srli	t5,ra,0x0
    1f70:	21212eb7          	lui	t4,0x21212
    1f74:	121e8e93          	addi	t4,t4,289 # 21212121 <SSEG+0x10152121>
    1f78:	00c00193          	li	gp,12
    1f7c:	01df0463          	beq	t5,t4,1f84 <srli_test+0x178>
    1f80:	a9cfe06f          	j	21c <fail>
    1f84:	ffffe097          	auipc	ra,0xffffe
    1f88:	26c080e7          	jalr	620(ra) # 1f0 <update_test>
    1f8c:	212120b7          	lui	ra,0x21212
    1f90:	12108093          	addi	ra,ra,289 # 21212121 <SSEG+0x10152121>
    1f94:	0010df13          	srli	t5,ra,0x1
    1f98:	10909eb7          	lui	t4,0x10909
    1f9c:	090e8e93          	addi	t4,t4,144 # 10909090 <DELAY_CNT+0x10814e50>
    1fa0:	00d00193          	li	gp,13
    1fa4:	01df0463          	beq	t5,t4,1fac <srli_test+0x1a0>
    1fa8:	a74fe06f          	j	21c <fail>
    1fac:	ffffe097          	auipc	ra,0xffffe
    1fb0:	244080e7          	jalr	580(ra) # 1f0 <update_test>
    1fb4:	212120b7          	lui	ra,0x21212
    1fb8:	12108093          	addi	ra,ra,289 # 21212121 <SSEG+0x10152121>
    1fbc:	0070df13          	srli	t5,ra,0x7
    1fc0:	00424eb7          	lui	t4,0x424
    1fc4:	242e8e93          	addi	t4,t4,578 # 424242 <DELAY_CNT+0x330002>
    1fc8:	00e00193          	li	gp,14
    1fcc:	01df0463          	beq	t5,t4,1fd4 <srli_test+0x1c8>
    1fd0:	a4cfe06f          	j	21c <fail>
    1fd4:	ffffe097          	auipc	ra,0xffffe
    1fd8:	21c080e7          	jalr	540(ra) # 1f0 <update_test>
    1fdc:	212120b7          	lui	ra,0x21212
    1fe0:	12108093          	addi	ra,ra,289 # 21212121 <SSEG+0x10152121>
    1fe4:	00e0df13          	srli	t5,ra,0xe
    1fe8:	00008eb7          	lui	t4,0x8
    1fec:	484e8e93          	addi	t4,t4,1156 # 8484 <__global_pointer$+0x3d40>
    1ff0:	00f00193          	li	gp,15
    1ff4:	01df0463          	beq	t5,t4,1ffc <srli_test+0x1f0>
    1ff8:	a24fe06f          	j	21c <fail>
    1ffc:	ffffe097          	auipc	ra,0xffffe
    2000:	1f4080e7          	jalr	500(ra) # 1f0 <update_test>
    2004:	212120b7          	lui	ra,0x21212
    2008:	12108093          	addi	ra,ra,289 # 21212121 <SSEG+0x10152121>
    200c:	01f0df13          	srli	t5,ra,0x1f
    2010:	00000e93          	li	t4,0
    2014:	01000193          	li	gp,16
    2018:	01df0463          	beq	t5,t4,2020 <srli_test+0x214>
    201c:	a00fe06f          	j	21c <fail>
    2020:	ffffe097          	auipc	ra,0xffffe
    2024:	1d0080e7          	jalr	464(ra) # 1f0 <update_test>
    2028:	800000b7          	lui	ra,0x80000
    202c:	0070d093          	srli	ra,ra,0x7
    2030:	01000eb7          	lui	t4,0x1000
    2034:	01100193          	li	gp,17
    2038:	01d08463          	beq	ra,t4,2040 <srli_test+0x234>
    203c:	9e0fe06f          	j	21c <fail>
    2040:	ffffe097          	auipc	ra,0xffffe
    2044:	1b0080e7          	jalr	432(ra) # 1f0 <update_test>
    2048:	000f8067          	jr	t6

0000204c <srai_test>:
    204c:	00000513          	li	a0,0
    2050:	00a62023          	sw	a0,0(a2)
    2054:	00000093          	li	ra,0
    2058:	4000df13          	srai	t5,ra,0x0
    205c:	00000e93          	li	t4,0
    2060:	00200193          	li	gp,2
    2064:	01df0463          	beq	t5,t4,206c <srai_test+0x20>
    2068:	9b4fe06f          	j	21c <fail>
    206c:	ffffe097          	auipc	ra,0xffffe
    2070:	184080e7          	jalr	388(ra) # 1f0 <update_test>
    2074:	800000b7          	lui	ra,0x80000
    2078:	4010df13          	srai	t5,ra,0x1
    207c:	c0000eb7          	lui	t4,0xc0000
    2080:	00300193          	li	gp,3
    2084:	01df0463          	beq	t5,t4,208c <srai_test+0x40>
    2088:	994fe06f          	j	21c <fail>
    208c:	ffffe097          	auipc	ra,0xffffe
    2090:	164080e7          	jalr	356(ra) # 1f0 <update_test>
    2094:	800000b7          	lui	ra,0x80000
    2098:	4070df13          	srai	t5,ra,0x7
    209c:	ff000eb7          	lui	t4,0xff000
    20a0:	00400193          	li	gp,4
    20a4:	01df0463          	beq	t5,t4,20ac <srai_test+0x60>
    20a8:	974fe06f          	j	21c <fail>
    20ac:	ffffe097          	auipc	ra,0xffffe
    20b0:	144080e7          	jalr	324(ra) # 1f0 <update_test>
    20b4:	800000b7          	lui	ra,0x80000
    20b8:	40e0df13          	srai	t5,ra,0xe
    20bc:	fffe0eb7          	lui	t4,0xfffe0
    20c0:	00500193          	li	gp,5
    20c4:	01df0463          	beq	t5,t4,20cc <srai_test+0x80>
    20c8:	954fe06f          	j	21c <fail>
    20cc:	ffffe097          	auipc	ra,0xffffe
    20d0:	124080e7          	jalr	292(ra) # 1f0 <update_test>
    20d4:	800000b7          	lui	ra,0x80000
    20d8:	00108093          	addi	ra,ra,1 # 80000001 <SSEG+0x6ef40001>
    20dc:	41f0df13          	srai	t5,ra,0x1f
    20e0:	fff00e93          	li	t4,-1
    20e4:	00600193          	li	gp,6
    20e8:	01df0463          	beq	t5,t4,20f0 <srai_test+0xa4>
    20ec:	930fe06f          	j	21c <fail>
    20f0:	ffffe097          	auipc	ra,0xffffe
    20f4:	100080e7          	jalr	256(ra) # 1f0 <update_test>
    20f8:	800000b7          	lui	ra,0x80000
    20fc:	fff08093          	addi	ra,ra,-1 # 7fffffff <SSEG+0x6ef3ffff>
    2100:	4000df13          	srai	t5,ra,0x0
    2104:	80000eb7          	lui	t4,0x80000
    2108:	fffe8e93          	addi	t4,t4,-1 # 7fffffff <SSEG+0x6ef3ffff>
    210c:	00700193          	li	gp,7
    2110:	01df0463          	beq	t5,t4,2118 <srai_test+0xcc>
    2114:	908fe06f          	j	21c <fail>
    2118:	ffffe097          	auipc	ra,0xffffe
    211c:	0d8080e7          	jalr	216(ra) # 1f0 <update_test>
    2120:	800000b7          	lui	ra,0x80000
    2124:	fff08093          	addi	ra,ra,-1 # 7fffffff <SSEG+0x6ef3ffff>
    2128:	4010df13          	srai	t5,ra,0x1
    212c:	40000eb7          	lui	t4,0x40000
    2130:	fffe8e93          	addi	t4,t4,-1 # 3fffffff <SSEG+0x2ef3ffff>
    2134:	00800193          	li	gp,8
    2138:	01df0463          	beq	t5,t4,2140 <srai_test+0xf4>
    213c:	8e0fe06f          	j	21c <fail>
    2140:	ffffe097          	auipc	ra,0xffffe
    2144:	0b0080e7          	jalr	176(ra) # 1f0 <update_test>
    2148:	800000b7          	lui	ra,0x80000
    214c:	fff08093          	addi	ra,ra,-1 # 7fffffff <SSEG+0x6ef3ffff>
    2150:	4070df13          	srai	t5,ra,0x7
    2154:	01000eb7          	lui	t4,0x1000
    2158:	fffe8e93          	addi	t4,t4,-1 # ffffff <DELAY_CNT+0xf0bdbf>
    215c:	00900193          	li	gp,9
    2160:	01df0463          	beq	t5,t4,2168 <srai_test+0x11c>
    2164:	8b8fe06f          	j	21c <fail>
    2168:	ffffe097          	auipc	ra,0xffffe
    216c:	088080e7          	jalr	136(ra) # 1f0 <update_test>
    2170:	800000b7          	lui	ra,0x80000
    2174:	fff08093          	addi	ra,ra,-1 # 7fffffff <SSEG+0x6ef3ffff>
    2178:	40e0df13          	srai	t5,ra,0xe
    217c:	00020eb7          	lui	t4,0x20
    2180:	fffe8e93          	addi	t4,t4,-1 # 1ffff <__sp+0xffff>
    2184:	00a00193          	li	gp,10
    2188:	01df0463          	beq	t5,t4,2190 <srai_test+0x144>
    218c:	890fe06f          	j	21c <fail>
    2190:	ffffe097          	auipc	ra,0xffffe
    2194:	060080e7          	jalr	96(ra) # 1f0 <update_test>
    2198:	800000b7          	lui	ra,0x80000
    219c:	fff08093          	addi	ra,ra,-1 # 7fffffff <SSEG+0x6ef3ffff>
    21a0:	41f0df13          	srai	t5,ra,0x1f
    21a4:	00000e93          	li	t4,0
    21a8:	00b00193          	li	gp,11
    21ac:	01df0463          	beq	t5,t4,21b4 <srai_test+0x168>
    21b0:	86cfe06f          	j	21c <fail>
    21b4:	ffffe097          	auipc	ra,0xffffe
    21b8:	03c080e7          	jalr	60(ra) # 1f0 <update_test>
    21bc:	818180b7          	lui	ra,0x81818
    21c0:	18108093          	addi	ra,ra,385 # 81818181 <SSEG+0x70758181>
    21c4:	4000df13          	srai	t5,ra,0x0
    21c8:	81818eb7          	lui	t4,0x81818
    21cc:	181e8e93          	addi	t4,t4,385 # 81818181 <SSEG+0x70758181>
    21d0:	00c00193          	li	gp,12
    21d4:	01df0463          	beq	t5,t4,21dc <srai_test+0x190>
    21d8:	844fe06f          	j	21c <fail>
    21dc:	ffffe097          	auipc	ra,0xffffe
    21e0:	014080e7          	jalr	20(ra) # 1f0 <update_test>
    21e4:	818180b7          	lui	ra,0x81818
    21e8:	18108093          	addi	ra,ra,385 # 81818181 <SSEG+0x70758181>
    21ec:	4010df13          	srai	t5,ra,0x1
    21f0:	c0c0ceb7          	lui	t4,0xc0c0c
    21f4:	0c0e8e93          	addi	t4,t4,192 # c0c0c0c0 <SSEG+0xafb4c0c0>
    21f8:	00d00193          	li	gp,13
    21fc:	01df0463          	beq	t5,t4,2204 <srai_test+0x1b8>
    2200:	81cfe06f          	j	21c <fail>
    2204:	ffffe097          	auipc	ra,0xffffe
    2208:	fec080e7          	jalr	-20(ra) # 1f0 <update_test>
    220c:	818180b7          	lui	ra,0x81818
    2210:	18108093          	addi	ra,ra,385 # 81818181 <SSEG+0x70758181>
    2214:	4070df13          	srai	t5,ra,0x7
    2218:	ff030eb7          	lui	t4,0xff030
    221c:	303e8e93          	addi	t4,t4,771 # ff030303 <SSEG+0xedf70303>
    2220:	00e00193          	li	gp,14
    2224:	01df0463          	beq	t5,t4,222c <srai_test+0x1e0>
    2228:	ff5fd06f          	j	21c <fail>
    222c:	ffffe097          	auipc	ra,0xffffe
    2230:	fc4080e7          	jalr	-60(ra) # 1f0 <update_test>
    2234:	818180b7          	lui	ra,0x81818
    2238:	18108093          	addi	ra,ra,385 # 81818181 <SSEG+0x70758181>
    223c:	40e0df13          	srai	t5,ra,0xe
    2240:	fffe0eb7          	lui	t4,0xfffe0
    2244:	606e8e93          	addi	t4,t4,1542 # fffe0606 <SSEG+0xeef20606>
    2248:	00f00193          	li	gp,15
    224c:	01df0463          	beq	t5,t4,2254 <srai_test+0x208>
    2250:	fcdfd06f          	j	21c <fail>
    2254:	ffffe097          	auipc	ra,0xffffe
    2258:	f9c080e7          	jalr	-100(ra) # 1f0 <update_test>
    225c:	818180b7          	lui	ra,0x81818
    2260:	18108093          	addi	ra,ra,385 # 81818181 <SSEG+0x70758181>
    2264:	41f0df13          	srai	t5,ra,0x1f
    2268:	fff00e93          	li	t4,-1
    226c:	01000193          	li	gp,16
    2270:	01df0463          	beq	t5,t4,2278 <srai_test+0x22c>
    2274:	fa9fd06f          	j	21c <fail>
    2278:	ffffe097          	auipc	ra,0xffffe
    227c:	f78080e7          	jalr	-136(ra) # 1f0 <update_test>
    2280:	800000b7          	lui	ra,0x80000
    2284:	4070d093          	srai	ra,ra,0x7
    2288:	ff000eb7          	lui	t4,0xff000
    228c:	01100193          	li	gp,17
    2290:	01d08463          	beq	ra,t4,2298 <srai_test+0x24c>
    2294:	f89fd06f          	j	21c <fail>
    2298:	ffffe097          	auipc	ra,0xffffe
    229c:	f58080e7          	jalr	-168(ra) # 1f0 <update_test>
    22a0:	000f8067          	jr	t6

000022a4 <sltiu_test>:
    22a4:	00000513          	li	a0,0
    22a8:	00a62023          	sw	a0,0(a2)
    22ac:	00000093          	li	ra,0
    22b0:	0000bf13          	sltiu	t5,ra,0
    22b4:	00000e93          	li	t4,0
    22b8:	00200193          	li	gp,2
    22bc:	01df0463          	beq	t5,t4,22c4 <sltiu_test+0x20>
    22c0:	f5dfd06f          	j	21c <fail>
    22c4:	ffffe097          	auipc	ra,0xffffe
    22c8:	f2c080e7          	jalr	-212(ra) # 1f0 <update_test>
    22cc:	00100093          	li	ra,1
    22d0:	0010bf13          	seqz	t5,ra
    22d4:	00000e93          	li	t4,0
    22d8:	00300193          	li	gp,3
    22dc:	01df0463          	beq	t5,t4,22e4 <sltiu_test+0x40>
    22e0:	f3dfd06f          	j	21c <fail>
    22e4:	ffffe097          	auipc	ra,0xffffe
    22e8:	f0c080e7          	jalr	-244(ra) # 1f0 <update_test>
    22ec:	00300093          	li	ra,3
    22f0:	0070bf13          	sltiu	t5,ra,7
    22f4:	00100e93          	li	t4,1
    22f8:	00400193          	li	gp,4
    22fc:	01df0463          	beq	t5,t4,2304 <sltiu_test+0x60>
    2300:	f1dfd06f          	j	21c <fail>
    2304:	ffffe097          	auipc	ra,0xffffe
    2308:	eec080e7          	jalr	-276(ra) # 1f0 <update_test>
    230c:	00700093          	li	ra,7
    2310:	0030bf13          	sltiu	t5,ra,3
    2314:	00000e93          	li	t4,0
    2318:	00500193          	li	gp,5
    231c:	01df0463          	beq	t5,t4,2324 <sltiu_test+0x80>
    2320:	efdfd06f          	j	21c <fail>
    2324:	ffffe097          	auipc	ra,0xffffe
    2328:	ecc080e7          	jalr	-308(ra) # 1f0 <update_test>
    232c:	00000093          	li	ra,0
    2330:	8000bf13          	sltiu	t5,ra,-2048
    2334:	00100e93          	li	t4,1
    2338:	00600193          	li	gp,6
    233c:	01df0463          	beq	t5,t4,2344 <sltiu_test+0xa0>
    2340:	eddfd06f          	j	21c <fail>
    2344:	ffffe097          	auipc	ra,0xffffe
    2348:	eac080e7          	jalr	-340(ra) # 1f0 <update_test>
    234c:	800000b7          	lui	ra,0x80000
    2350:	0000bf13          	sltiu	t5,ra,0
    2354:	00000e93          	li	t4,0
    2358:	00700193          	li	gp,7
    235c:	01df0463          	beq	t5,t4,2364 <sltiu_test+0xc0>
    2360:	ebdfd06f          	j	21c <fail>
    2364:	ffffe097          	auipc	ra,0xffffe
    2368:	e8c080e7          	jalr	-372(ra) # 1f0 <update_test>
    236c:	800000b7          	lui	ra,0x80000
    2370:	8000bf13          	sltiu	t5,ra,-2048
    2374:	00100e93          	li	t4,1
    2378:	00800193          	li	gp,8
    237c:	01df0463          	beq	t5,t4,2384 <sltiu_test+0xe0>
    2380:	e9dfd06f          	j	21c <fail>
    2384:	ffffe097          	auipc	ra,0xffffe
    2388:	e6c080e7          	jalr	-404(ra) # 1f0 <update_test>
    238c:	00000093          	li	ra,0
    2390:	7ff0bf13          	sltiu	t5,ra,2047
    2394:	00100e93          	li	t4,1
    2398:	00900193          	li	gp,9
    239c:	01df0463          	beq	t5,t4,23a4 <sltiu_test+0x100>
    23a0:	e7dfd06f          	j	21c <fail>
    23a4:	ffffe097          	auipc	ra,0xffffe
    23a8:	e4c080e7          	jalr	-436(ra) # 1f0 <update_test>
    23ac:	800000b7          	lui	ra,0x80000
    23b0:	fff08093          	addi	ra,ra,-1 # 7fffffff <SSEG+0x6ef3ffff>
    23b4:	0000bf13          	sltiu	t5,ra,0
    23b8:	00000e93          	li	t4,0
    23bc:	00a00193          	li	gp,10
    23c0:	01df0463          	beq	t5,t4,23c8 <sltiu_test+0x124>
    23c4:	e59fd06f          	j	21c <fail>
    23c8:	ffffe097          	auipc	ra,0xffffe
    23cc:	e28080e7          	jalr	-472(ra) # 1f0 <update_test>
    23d0:	800000b7          	lui	ra,0x80000
    23d4:	fff08093          	addi	ra,ra,-1 # 7fffffff <SSEG+0x6ef3ffff>
    23d8:	7ff0bf13          	sltiu	t5,ra,2047
    23dc:	00000e93          	li	t4,0
    23e0:	00b00193          	li	gp,11
    23e4:	01df0463          	beq	t5,t4,23ec <sltiu_test+0x148>
    23e8:	e35fd06f          	j	21c <fail>
    23ec:	ffffe097          	auipc	ra,0xffffe
    23f0:	e04080e7          	jalr	-508(ra) # 1f0 <update_test>
    23f4:	800000b7          	lui	ra,0x80000
    23f8:	7ff0bf13          	sltiu	t5,ra,2047
    23fc:	00000e93          	li	t4,0
    2400:	00c00193          	li	gp,12
    2404:	01df0463          	beq	t5,t4,240c <sltiu_test+0x168>
    2408:	e15fd06f          	j	21c <fail>
    240c:	ffffe097          	auipc	ra,0xffffe
    2410:	de4080e7          	jalr	-540(ra) # 1f0 <update_test>
    2414:	800000b7          	lui	ra,0x80000
    2418:	fff08093          	addi	ra,ra,-1 # 7fffffff <SSEG+0x6ef3ffff>
    241c:	8000bf13          	sltiu	t5,ra,-2048
    2420:	00100e93          	li	t4,1
    2424:	00d00193          	li	gp,13
    2428:	01df0463          	beq	t5,t4,2430 <sltiu_test+0x18c>
    242c:	df1fd06f          	j	21c <fail>
    2430:	ffffe097          	auipc	ra,0xffffe
    2434:	dc0080e7          	jalr	-576(ra) # 1f0 <update_test>
    2438:	00000093          	li	ra,0
    243c:	fff0bf13          	sltiu	t5,ra,-1
    2440:	00100e93          	li	t4,1
    2444:	00e00193          	li	gp,14
    2448:	01df0463          	beq	t5,t4,2450 <sltiu_test+0x1ac>
    244c:	dd1fd06f          	j	21c <fail>
    2450:	ffffe097          	auipc	ra,0xffffe
    2454:	da0080e7          	jalr	-608(ra) # 1f0 <update_test>
    2458:	fff00093          	li	ra,-1
    245c:	0010bf13          	seqz	t5,ra
    2460:	00000e93          	li	t4,0
    2464:	00f00193          	li	gp,15
    2468:	01df0463          	beq	t5,t4,2470 <sltiu_test+0x1cc>
    246c:	db1fd06f          	j	21c <fail>
    2470:	ffffe097          	auipc	ra,0xffffe
    2474:	d80080e7          	jalr	-640(ra) # 1f0 <update_test>
    2478:	fff00093          	li	ra,-1
    247c:	fff0bf13          	sltiu	t5,ra,-1
    2480:	00000e93          	li	t4,0
    2484:	01000193          	li	gp,16
    2488:	01df0463          	beq	t5,t4,2490 <sltiu_test+0x1ec>
    248c:	d91fd06f          	j	21c <fail>
    2490:	ffffe097          	auipc	ra,0xffffe
    2494:	d60080e7          	jalr	-672(ra) # 1f0 <update_test>
    2498:	00b00093          	li	ra,11
    249c:	00d0b093          	sltiu	ra,ra,13
    24a0:	00100e93          	li	t4,1
    24a4:	01100193          	li	gp,17
    24a8:	01d08463          	beq	ra,t4,24b0 <sltiu_test+0x20c>
    24ac:	d71fd06f          	j	21c <fail>
    24b0:	ffffe097          	auipc	ra,0xffffe
    24b4:	d40080e7          	jalr	-704(ra) # 1f0 <update_test>
    24b8:	000f8067          	jr	t6

000024bc <slti_test>:
    24bc:	00000513          	li	a0,0
    24c0:	00a62023          	sw	a0,0(a2)
    24c4:	00000093          	li	ra,0
    24c8:	0000af13          	slti	t5,ra,0
    24cc:	00000e93          	li	t4,0
    24d0:	00200193          	li	gp,2
    24d4:	01df0463          	beq	t5,t4,24dc <slti_test+0x20>
    24d8:	d45fd06f          	j	21c <fail>
    24dc:	ffffe097          	auipc	ra,0xffffe
    24e0:	d14080e7          	jalr	-748(ra) # 1f0 <update_test>
    24e4:	00100093          	li	ra,1
    24e8:	0010af13          	slti	t5,ra,1
    24ec:	00000e93          	li	t4,0
    24f0:	00300193          	li	gp,3
    24f4:	01df0463          	beq	t5,t4,24fc <slti_test+0x40>
    24f8:	d25fd06f          	j	21c <fail>
    24fc:	ffffe097          	auipc	ra,0xffffe
    2500:	cf4080e7          	jalr	-780(ra) # 1f0 <update_test>
    2504:	00300093          	li	ra,3
    2508:	0070af13          	slti	t5,ra,7
    250c:	00100e93          	li	t4,1
    2510:	00400193          	li	gp,4
    2514:	01df0463          	beq	t5,t4,251c <slti_test+0x60>
    2518:	d05fd06f          	j	21c <fail>
    251c:	ffffe097          	auipc	ra,0xffffe
    2520:	cd4080e7          	jalr	-812(ra) # 1f0 <update_test>
    2524:	00700093          	li	ra,7
    2528:	0030af13          	slti	t5,ra,3
    252c:	00000e93          	li	t4,0
    2530:	00500193          	li	gp,5
    2534:	01df0463          	beq	t5,t4,253c <slti_test+0x80>
    2538:	ce5fd06f          	j	21c <fail>
    253c:	ffffe097          	auipc	ra,0xffffe
    2540:	cb4080e7          	jalr	-844(ra) # 1f0 <update_test>
    2544:	00000093          	li	ra,0
    2548:	8000af13          	slti	t5,ra,-2048
    254c:	00000e93          	li	t4,0
    2550:	00600193          	li	gp,6
    2554:	01df0463          	beq	t5,t4,255c <slti_test+0xa0>
    2558:	cc5fd06f          	j	21c <fail>
    255c:	ffffe097          	auipc	ra,0xffffe
    2560:	c94080e7          	jalr	-876(ra) # 1f0 <update_test>
    2564:	800000b7          	lui	ra,0x80000
    2568:	0000af13          	slti	t5,ra,0
    256c:	00100e93          	li	t4,1
    2570:	00700193          	li	gp,7
    2574:	01df0463          	beq	t5,t4,257c <slti_test+0xc0>
    2578:	ca5fd06f          	j	21c <fail>
    257c:	ffffe097          	auipc	ra,0xffffe
    2580:	c74080e7          	jalr	-908(ra) # 1f0 <update_test>
    2584:	800000b7          	lui	ra,0x80000
    2588:	8000af13          	slti	t5,ra,-2048
    258c:	00100e93          	li	t4,1
    2590:	00800193          	li	gp,8
    2594:	01df0463          	beq	t5,t4,259c <slti_test+0xe0>
    2598:	c85fd06f          	j	21c <fail>
    259c:	ffffe097          	auipc	ra,0xffffe
    25a0:	c54080e7          	jalr	-940(ra) # 1f0 <update_test>
    25a4:	00000093          	li	ra,0
    25a8:	7ff0af13          	slti	t5,ra,2047
    25ac:	00100e93          	li	t4,1
    25b0:	00900193          	li	gp,9
    25b4:	01df0463          	beq	t5,t4,25bc <slti_test+0x100>
    25b8:	c65fd06f          	j	21c <fail>
    25bc:	ffffe097          	auipc	ra,0xffffe
    25c0:	c34080e7          	jalr	-972(ra) # 1f0 <update_test>
    25c4:	800000b7          	lui	ra,0x80000
    25c8:	fff08093          	addi	ra,ra,-1 # 7fffffff <SSEG+0x6ef3ffff>
    25cc:	0000af13          	slti	t5,ra,0
    25d0:	00000e93          	li	t4,0
    25d4:	00a00193          	li	gp,10
    25d8:	01df0463          	beq	t5,t4,25e0 <slti_test+0x124>
    25dc:	c41fd06f          	j	21c <fail>
    25e0:	ffffe097          	auipc	ra,0xffffe
    25e4:	c10080e7          	jalr	-1008(ra) # 1f0 <update_test>
    25e8:	800000b7          	lui	ra,0x80000
    25ec:	fff08093          	addi	ra,ra,-1 # 7fffffff <SSEG+0x6ef3ffff>
    25f0:	7ff0af13          	slti	t5,ra,2047
    25f4:	00000e93          	li	t4,0
    25f8:	00b00193          	li	gp,11
    25fc:	01df0463          	beq	t5,t4,2604 <slti_test+0x148>
    2600:	c1dfd06f          	j	21c <fail>
    2604:	ffffe097          	auipc	ra,0xffffe
    2608:	bec080e7          	jalr	-1044(ra) # 1f0 <update_test>
    260c:	800000b7          	lui	ra,0x80000
    2610:	7ff0af13          	slti	t5,ra,2047
    2614:	00100e93          	li	t4,1
    2618:	00c00193          	li	gp,12
    261c:	01df0463          	beq	t5,t4,2624 <slti_test+0x168>
    2620:	bfdfd06f          	j	21c <fail>
    2624:	ffffe097          	auipc	ra,0xffffe
    2628:	bcc080e7          	jalr	-1076(ra) # 1f0 <update_test>
    262c:	800000b7          	lui	ra,0x80000
    2630:	fff08093          	addi	ra,ra,-1 # 7fffffff <SSEG+0x6ef3ffff>
    2634:	8000af13          	slti	t5,ra,-2048
    2638:	00000e93          	li	t4,0
    263c:	00d00193          	li	gp,13
    2640:	01df0463          	beq	t5,t4,2648 <slti_test+0x18c>
    2644:	bd9fd06f          	j	21c <fail>
    2648:	ffffe097          	auipc	ra,0xffffe
    264c:	ba8080e7          	jalr	-1112(ra) # 1f0 <update_test>
    2650:	00000093          	li	ra,0
    2654:	fff0af13          	slti	t5,ra,-1
    2658:	00000e93          	li	t4,0
    265c:	00e00193          	li	gp,14
    2660:	01df0463          	beq	t5,t4,2668 <slti_test+0x1ac>
    2664:	bb9fd06f          	j	21c <fail>
    2668:	ffffe097          	auipc	ra,0xffffe
    266c:	b88080e7          	jalr	-1144(ra) # 1f0 <update_test>
    2670:	fff00093          	li	ra,-1
    2674:	0010af13          	slti	t5,ra,1
    2678:	00100e93          	li	t4,1
    267c:	00f00193          	li	gp,15
    2680:	01df0463          	beq	t5,t4,2688 <slti_test+0x1cc>
    2684:	b99fd06f          	j	21c <fail>
    2688:	ffffe097          	auipc	ra,0xffffe
    268c:	b68080e7          	jalr	-1176(ra) # 1f0 <update_test>
    2690:	fff00093          	li	ra,-1
    2694:	fff0af13          	slti	t5,ra,-1
    2698:	00000e93          	li	t4,0
    269c:	01000193          	li	gp,16
    26a0:	01df0463          	beq	t5,t4,26a8 <slti_test+0x1ec>
    26a4:	b79fd06f          	j	21c <fail>
    26a8:	ffffe097          	auipc	ra,0xffffe
    26ac:	b48080e7          	jalr	-1208(ra) # 1f0 <update_test>
    26b0:	00b00093          	li	ra,11
    26b4:	00d0a093          	slti	ra,ra,13
    26b8:	00100e93          	li	t4,1
    26bc:	01100193          	li	gp,17
    26c0:	01d08463          	beq	ra,t4,26c8 <slti_test+0x20c>
    26c4:	b59fd06f          	j	21c <fail>
    26c8:	ffffe097          	auipc	ra,0xffffe
    26cc:	b28080e7          	jalr	-1240(ra) # 1f0 <update_test>
    26d0:	000f8067          	jr	t6

000026d4 <lw_test>:
    26d4:	00000513          	li	a0,0
    26d8:	00a62023          	sw	a0,0(a2)
    26dc:	00002097          	auipc	ra,0x2
    26e0:	87408093          	addi	ra,ra,-1932 # 3f50 <tdat1lw>
    26e4:	0000af03          	lw	t5,0(ra)
    26e8:	00ff0eb7          	lui	t4,0xff0
    26ec:	0ffe8e93          	addi	t4,t4,255 # ff00ff <DELAY_CNT+0xefbebf>
    26f0:	00200193          	li	gp,2
    26f4:	01df0463          	beq	t5,t4,26fc <lw_test+0x28>
    26f8:	b25fd06f          	j	21c <fail>
    26fc:	ffffe097          	auipc	ra,0xffffe
    2700:	af4080e7          	jalr	-1292(ra) # 1f0 <update_test>
    2704:	00002097          	auipc	ra,0x2
    2708:	84c08093          	addi	ra,ra,-1972 # 3f50 <tdat1lw>
    270c:	0040af03          	lw	t5,4(ra)
    2710:	ff010eb7          	lui	t4,0xff010
    2714:	f00e8e93          	addi	t4,t4,-256 # ff00ff00 <SSEG+0xedf4ff00>
    2718:	00300193          	li	gp,3
    271c:	01df0463          	beq	t5,t4,2724 <lw_test+0x50>
    2720:	afdfd06f          	j	21c <fail>
    2724:	ffffe097          	auipc	ra,0xffffe
    2728:	acc080e7          	jalr	-1332(ra) # 1f0 <update_test>
    272c:	00002097          	auipc	ra,0x2
    2730:	82408093          	addi	ra,ra,-2012 # 3f50 <tdat1lw>
    2734:	0080af03          	lw	t5,8(ra)
    2738:	0ff01eb7          	lui	t4,0xff01
    273c:	ff0e8e93          	addi	t4,t4,-16 # ff00ff0 <DELAY_CNT+0xfe0cdb0>
    2740:	00400193          	li	gp,4
    2744:	01df0463          	beq	t5,t4,274c <lw_test+0x78>
    2748:	ad5fd06f          	j	21c <fail>
    274c:	ffffe097          	auipc	ra,0xffffe
    2750:	aa4080e7          	jalr	-1372(ra) # 1f0 <update_test>
    2754:	00001097          	auipc	ra,0x1
    2758:	7fc08093          	addi	ra,ra,2044 # 3f50 <tdat1lw>
    275c:	00c0af03          	lw	t5,12(ra)
    2760:	f00ffeb7          	lui	t4,0xf00ff
    2764:	00fe8e93          	addi	t4,t4,15 # f00ff00f <SSEG+0xdf03f00f>
    2768:	00500193          	li	gp,5
    276c:	01df0463          	beq	t5,t4,2774 <lw_test+0xa0>
    2770:	aadfd06f          	j	21c <fail>
    2774:	ffffe097          	auipc	ra,0xffffe
    2778:	a7c080e7          	jalr	-1412(ra) # 1f0 <update_test>
    277c:	00001097          	auipc	ra,0x1
    2780:	7e008093          	addi	ra,ra,2016 # 3f5c <tdat4lw>
    2784:	ff40af03          	lw	t5,-12(ra)
    2788:	00ff0eb7          	lui	t4,0xff0
    278c:	0ffe8e93          	addi	t4,t4,255 # ff00ff <DELAY_CNT+0xefbebf>
    2790:	00600193          	li	gp,6
    2794:	01df0463          	beq	t5,t4,279c <lw_test+0xc8>
    2798:	a85fd06f          	j	21c <fail>
    279c:	ffffe097          	auipc	ra,0xffffe
    27a0:	a54080e7          	jalr	-1452(ra) # 1f0 <update_test>
    27a4:	00001097          	auipc	ra,0x1
    27a8:	7b808093          	addi	ra,ra,1976 # 3f5c <tdat4lw>
    27ac:	ff80af03          	lw	t5,-8(ra)
    27b0:	ff010eb7          	lui	t4,0xff010
    27b4:	f00e8e93          	addi	t4,t4,-256 # ff00ff00 <SSEG+0xedf4ff00>
    27b8:	00700193          	li	gp,7
    27bc:	01df0463          	beq	t5,t4,27c4 <lw_test+0xf0>
    27c0:	a5dfd06f          	j	21c <fail>
    27c4:	ffffe097          	auipc	ra,0xffffe
    27c8:	a2c080e7          	jalr	-1492(ra) # 1f0 <update_test>
    27cc:	00001097          	auipc	ra,0x1
    27d0:	79008093          	addi	ra,ra,1936 # 3f5c <tdat4lw>
    27d4:	ffc0af03          	lw	t5,-4(ra)
    27d8:	0ff01eb7          	lui	t4,0xff01
    27dc:	ff0e8e93          	addi	t4,t4,-16 # ff00ff0 <DELAY_CNT+0xfe0cdb0>
    27e0:	00800193          	li	gp,8
    27e4:	01df0463          	beq	t5,t4,27ec <lw_test+0x118>
    27e8:	a35fd06f          	j	21c <fail>
    27ec:	ffffe097          	auipc	ra,0xffffe
    27f0:	a04080e7          	jalr	-1532(ra) # 1f0 <update_test>
    27f4:	00001097          	auipc	ra,0x1
    27f8:	76808093          	addi	ra,ra,1896 # 3f5c <tdat4lw>
    27fc:	0000af03          	lw	t5,0(ra)
    2800:	f00ffeb7          	lui	t4,0xf00ff
    2804:	00fe8e93          	addi	t4,t4,15 # f00ff00f <SSEG+0xdf03f00f>
    2808:	00900193          	li	gp,9
    280c:	01df0463          	beq	t5,t4,2814 <lw_test+0x140>
    2810:	a0dfd06f          	j	21c <fail>
    2814:	ffffe097          	auipc	ra,0xffffe
    2818:	9dc080e7          	jalr	-1572(ra) # 1f0 <update_test>
    281c:	00001097          	auipc	ra,0x1
    2820:	73408093          	addi	ra,ra,1844 # 3f50 <tdat1lw>
    2824:	fe008093          	addi	ra,ra,-32
    2828:	0200a283          	lw	t0,32(ra)
    282c:	00ff0eb7          	lui	t4,0xff0
    2830:	0ffe8e93          	addi	t4,t4,255 # ff00ff <DELAY_CNT+0xefbebf>
    2834:	00a00193          	li	gp,10
    2838:	01d28463          	beq	t0,t4,2840 <lw_test+0x16c>
    283c:	9e1fd06f          	j	21c <fail>
    2840:	ffffe097          	auipc	ra,0xffffe
    2844:	9b0080e7          	jalr	-1616(ra) # 1f0 <update_test>
    2848:	000f8067          	jr	t6

0000284c <sw_test>:
    284c:	00000513          	li	a0,0
    2850:	00a62023          	sw	a0,0(a2)
    2854:	00001097          	auipc	ra,0x1
    2858:	70c08093          	addi	ra,ra,1804 # 3f60 <tdat>
    285c:	00aa0137          	lui	sp,0xaa0
    2860:	0aa10113          	addi	sp,sp,170 # aa00aa <DELAY_CNT+0x9abe6a>
    2864:	0020a023          	sw	sp,0(ra)
    2868:	0000af03          	lw	t5,0(ra)
    286c:	00aa0eb7          	lui	t4,0xaa0
    2870:	0aae8e93          	addi	t4,t4,170 # aa00aa <DELAY_CNT+0x9abe6a>
    2874:	00200193          	li	gp,2
    2878:	01df0463          	beq	t5,t4,2880 <sw_test+0x34>
    287c:	9a1fd06f          	j	21c <fail>
    2880:	ffffe097          	auipc	ra,0xffffe
    2884:	970080e7          	jalr	-1680(ra) # 1f0 <update_test>
    2888:	00001097          	auipc	ra,0x1
    288c:	6d808093          	addi	ra,ra,1752 # 3f60 <tdat>
    2890:	aa00b137          	lui	sp,0xaa00b
    2894:	a0010113          	addi	sp,sp,-1536 # aa00aa00 <SSEG+0x98f4aa00>
    2898:	0020a223          	sw	sp,4(ra)
    289c:	0040af03          	lw	t5,4(ra)
    28a0:	aa00beb7          	lui	t4,0xaa00b
    28a4:	a00e8e93          	addi	t4,t4,-1536 # aa00aa00 <SSEG+0x98f4aa00>
    28a8:	00300193          	li	gp,3
    28ac:	01df0463          	beq	t5,t4,28b4 <sw_test+0x68>
    28b0:	96dfd06f          	j	21c <fail>
    28b4:	ffffe097          	auipc	ra,0xffffe
    28b8:	93c080e7          	jalr	-1732(ra) # 1f0 <update_test>
    28bc:	00001097          	auipc	ra,0x1
    28c0:	6a408093          	addi	ra,ra,1700 # 3f60 <tdat>
    28c4:	0aa01137          	lui	sp,0xaa01
    28c8:	aa010113          	addi	sp,sp,-1376 # aa00aa0 <DELAY_CNT+0xa90c860>
    28cc:	0020a423          	sw	sp,8(ra)
    28d0:	0080af03          	lw	t5,8(ra)
    28d4:	0aa01eb7          	lui	t4,0xaa01
    28d8:	aa0e8e93          	addi	t4,t4,-1376 # aa00aa0 <DELAY_CNT+0xa90c860>
    28dc:	00400193          	li	gp,4
    28e0:	01df0463          	beq	t5,t4,28e8 <sw_test+0x9c>
    28e4:	939fd06f          	j	21c <fail>
    28e8:	ffffe097          	auipc	ra,0xffffe
    28ec:	908080e7          	jalr	-1784(ra) # 1f0 <update_test>
    28f0:	00001097          	auipc	ra,0x1
    28f4:	67008093          	addi	ra,ra,1648 # 3f60 <tdat>
    28f8:	a00aa137          	lui	sp,0xa00aa
    28fc:	00a10113          	addi	sp,sp,10 # a00aa00a <SSEG+0x8efea00a>
    2900:	0020a623          	sw	sp,12(ra)
    2904:	00c0af03          	lw	t5,12(ra)
    2908:	a00aaeb7          	lui	t4,0xa00aa
    290c:	00ae8e93          	addi	t4,t4,10 # a00aa00a <SSEG+0x8efea00a>
    2910:	00500193          	li	gp,5
    2914:	01df0463          	beq	t5,t4,291c <sw_test+0xd0>
    2918:	905fd06f          	j	21c <fail>
    291c:	ffffe097          	auipc	ra,0xffffe
    2920:	8d4080e7          	jalr	-1836(ra) # 1f0 <update_test>
    2924:	00001097          	auipc	ra,0x1
    2928:	65808093          	addi	ra,ra,1624 # 3f7c <tdat8>
    292c:	00aa0137          	lui	sp,0xaa0
    2930:	0aa10113          	addi	sp,sp,170 # aa00aa <DELAY_CNT+0x9abe6a>
    2934:	fe20aa23          	sw	sp,-12(ra)
    2938:	ff40af03          	lw	t5,-12(ra)
    293c:	00aa0eb7          	lui	t4,0xaa0
    2940:	0aae8e93          	addi	t4,t4,170 # aa00aa <DELAY_CNT+0x9abe6a>
    2944:	00600193          	li	gp,6
    2948:	01df0463          	beq	t5,t4,2950 <sw_test+0x104>
    294c:	8d1fd06f          	j	21c <fail>
    2950:	ffffe097          	auipc	ra,0xffffe
    2954:	8a0080e7          	jalr	-1888(ra) # 1f0 <update_test>
    2958:	00001097          	auipc	ra,0x1
    295c:	62408093          	addi	ra,ra,1572 # 3f7c <tdat8>
    2960:	aa00b137          	lui	sp,0xaa00b
    2964:	a0010113          	addi	sp,sp,-1536 # aa00aa00 <SSEG+0x98f4aa00>
    2968:	fe20ac23          	sw	sp,-8(ra)
    296c:	ff80af03          	lw	t5,-8(ra)
    2970:	aa00beb7          	lui	t4,0xaa00b
    2974:	a00e8e93          	addi	t4,t4,-1536 # aa00aa00 <SSEG+0x98f4aa00>
    2978:	00700193          	li	gp,7
    297c:	01df0463          	beq	t5,t4,2984 <sw_test+0x138>
    2980:	89dfd06f          	j	21c <fail>
    2984:	ffffe097          	auipc	ra,0xffffe
    2988:	86c080e7          	jalr	-1940(ra) # 1f0 <update_test>
    298c:	00001097          	auipc	ra,0x1
    2990:	5f008093          	addi	ra,ra,1520 # 3f7c <tdat8>
    2994:	0aa01137          	lui	sp,0xaa01
    2998:	aa010113          	addi	sp,sp,-1376 # aa00aa0 <DELAY_CNT+0xa90c860>
    299c:	fe20ae23          	sw	sp,-4(ra)
    29a0:	ffc0af03          	lw	t5,-4(ra)
    29a4:	0aa01eb7          	lui	t4,0xaa01
    29a8:	aa0e8e93          	addi	t4,t4,-1376 # aa00aa0 <DELAY_CNT+0xa90c860>
    29ac:	00800193          	li	gp,8
    29b0:	01df0463          	beq	t5,t4,29b8 <sw_test+0x16c>
    29b4:	869fd06f          	j	21c <fail>
    29b8:	ffffe097          	auipc	ra,0xffffe
    29bc:	838080e7          	jalr	-1992(ra) # 1f0 <update_test>
    29c0:	00001097          	auipc	ra,0x1
    29c4:	5bc08093          	addi	ra,ra,1468 # 3f7c <tdat8>
    29c8:	a00aa137          	lui	sp,0xa00aa
    29cc:	00a10113          	addi	sp,sp,10 # a00aa00a <SSEG+0x8efea00a>
    29d0:	0020a023          	sw	sp,0(ra)
    29d4:	0000af03          	lw	t5,0(ra)
    29d8:	a00aaeb7          	lui	t4,0xa00aa
    29dc:	00ae8e93          	addi	t4,t4,10 # a00aa00a <SSEG+0x8efea00a>
    29e0:	00900193          	li	gp,9
    29e4:	01df0463          	beq	t5,t4,29ec <sw_test+0x1a0>
    29e8:	835fd06f          	j	21c <fail>
    29ec:	ffffe097          	auipc	ra,0xffffe
    29f0:	804080e7          	jalr	-2044(ra) # 1f0 <update_test>
    29f4:	00001097          	auipc	ra,0x1
    29f8:	58c08093          	addi	ra,ra,1420 # 3f80 <tdat9>
    29fc:	12345137          	lui	sp,0x12345
    2a00:	67810113          	addi	sp,sp,1656 # 12345678 <SSEG+0x1285678>
    2a04:	fe008213          	addi	tp,ra,-32
    2a08:	02222023          	sw	sp,32(tp) # 20 <loop+0x14>
    2a0c:	0000a283          	lw	t0,0(ra)
    2a10:	12345eb7          	lui	t4,0x12345
    2a14:	678e8e93          	addi	t4,t4,1656 # 12345678 <SSEG+0x1285678>
    2a18:	00a00193          	li	gp,10
    2a1c:	01d28463          	beq	t0,t4,2a24 <sw_test+0x1d8>
    2a20:	ffcfd06f          	j	21c <fail>
    2a24:	ffffd097          	auipc	ra,0xffffd
    2a28:	7cc080e7          	jalr	1996(ra) # 1f0 <update_test>
    2a2c:	000f8067          	jr	t6

00002a30 <beq_test>:
    2a30:	00000513          	li	a0,0
    2a34:	00a62023          	sw	a0,0(a2)
    2a38:	00200193          	li	gp,2
    2a3c:	00000093          	li	ra,0
    2a40:	00000113          	li	sp,0
    2a44:	00208863          	beq	ra,sp,2a54 <beq_test+0x24>
    2a48:	00300463          	beq	zero,gp,2a50 <beq_test+0x20>
    2a4c:	fd0fd06f          	j	21c <fail>
    2a50:	00301863          	bne	zero,gp,2a60 <beq_test+0x30>
    2a54:	fe208ee3          	beq	ra,sp,2a50 <beq_test+0x20>
    2a58:	00300463          	beq	zero,gp,2a60 <beq_test+0x30>
    2a5c:	fc0fd06f          	j	21c <fail>
    2a60:	ffffd097          	auipc	ra,0xffffd
    2a64:	790080e7          	jalr	1936(ra) # 1f0 <update_test>
    2a68:	00300193          	li	gp,3
    2a6c:	00100093          	li	ra,1
    2a70:	00100113          	li	sp,1
    2a74:	00208863          	beq	ra,sp,2a84 <beq_test+0x54>
    2a78:	00300463          	beq	zero,gp,2a80 <beq_test+0x50>
    2a7c:	fa0fd06f          	j	21c <fail>
    2a80:	00301863          	bne	zero,gp,2a90 <beq_test+0x60>
    2a84:	fe208ee3          	beq	ra,sp,2a80 <beq_test+0x50>
    2a88:	00300463          	beq	zero,gp,2a90 <beq_test+0x60>
    2a8c:	f90fd06f          	j	21c <fail>
    2a90:	ffffd097          	auipc	ra,0xffffd
    2a94:	760080e7          	jalr	1888(ra) # 1f0 <update_test>
    2a98:	00400193          	li	gp,4
    2a9c:	fff00093          	li	ra,-1
    2aa0:	fff00113          	li	sp,-1
    2aa4:	00208863          	beq	ra,sp,2ab4 <beq_test+0x84>
    2aa8:	00300463          	beq	zero,gp,2ab0 <beq_test+0x80>
    2aac:	f70fd06f          	j	21c <fail>
    2ab0:	00301863          	bne	zero,gp,2ac0 <beq_test+0x90>
    2ab4:	fe208ee3          	beq	ra,sp,2ab0 <beq_test+0x80>
    2ab8:	00300463          	beq	zero,gp,2ac0 <beq_test+0x90>
    2abc:	f60fd06f          	j	21c <fail>
    2ac0:	ffffd097          	auipc	ra,0xffffd
    2ac4:	730080e7          	jalr	1840(ra) # 1f0 <update_test>
    2ac8:	00500193          	li	gp,5
    2acc:	00000093          	li	ra,0
    2ad0:	00100113          	li	sp,1
    2ad4:	00208463          	beq	ra,sp,2adc <beq_test+0xac>
    2ad8:	00301663          	bne	zero,gp,2ae4 <beq_test+0xb4>
    2adc:	00300463          	beq	zero,gp,2ae4 <beq_test+0xb4>
    2ae0:	f3cfd06f          	j	21c <fail>
    2ae4:	fe208ce3          	beq	ra,sp,2adc <beq_test+0xac>
    2ae8:	ffffd097          	auipc	ra,0xffffd
    2aec:	708080e7          	jalr	1800(ra) # 1f0 <update_test>
    2af0:	00600193          	li	gp,6
    2af4:	00100093          	li	ra,1
    2af8:	00000113          	li	sp,0
    2afc:	00208463          	beq	ra,sp,2b04 <beq_test+0xd4>
    2b00:	00301663          	bne	zero,gp,2b0c <beq_test+0xdc>
    2b04:	00300463          	beq	zero,gp,2b0c <beq_test+0xdc>
    2b08:	f14fd06f          	j	21c <fail>
    2b0c:	fe208ce3          	beq	ra,sp,2b04 <beq_test+0xd4>
    2b10:	ffffd097          	auipc	ra,0xffffd
    2b14:	6e0080e7          	jalr	1760(ra) # 1f0 <update_test>
    2b18:	00700193          	li	gp,7
    2b1c:	fff00093          	li	ra,-1
    2b20:	00100113          	li	sp,1
    2b24:	00208463          	beq	ra,sp,2b2c <beq_test+0xfc>
    2b28:	00301663          	bne	zero,gp,2b34 <beq_test+0x104>
    2b2c:	00300463          	beq	zero,gp,2b34 <beq_test+0x104>
    2b30:	eecfd06f          	j	21c <fail>
    2b34:	fe208ce3          	beq	ra,sp,2b2c <beq_test+0xfc>
    2b38:	ffffd097          	auipc	ra,0xffffd
    2b3c:	6b8080e7          	jalr	1720(ra) # 1f0 <update_test>
    2b40:	00800193          	li	gp,8
    2b44:	00100093          	li	ra,1
    2b48:	fff00113          	li	sp,-1
    2b4c:	00208463          	beq	ra,sp,2b54 <beq_test+0x124>
    2b50:	00301663          	bne	zero,gp,2b5c <beq_test+0x12c>
    2b54:	00300463          	beq	zero,gp,2b5c <beq_test+0x12c>
    2b58:	ec4fd06f          	j	21c <fail>
    2b5c:	fe208ce3          	beq	ra,sp,2b54 <beq_test+0x124>
    2b60:	ffffd097          	auipc	ra,0xffffd
    2b64:	690080e7          	jalr	1680(ra) # 1f0 <update_test>
    2b68:	000f8067          	jr	t6

00002b6c <bne_test>:
    2b6c:	00000513          	li	a0,0
    2b70:	00a62023          	sw	a0,0(a2)
    2b74:	00200193          	li	gp,2
    2b78:	00000093          	li	ra,0
    2b7c:	00100113          	li	sp,1
    2b80:	00209863          	bne	ra,sp,2b90 <bne_test+0x24>
    2b84:	00300463          	beq	zero,gp,2b8c <bne_test+0x20>
    2b88:	e94fd06f          	j	21c <fail>
    2b8c:	00301863          	bne	zero,gp,2b9c <bne_test+0x30>
    2b90:	fe209ee3          	bne	ra,sp,2b8c <bne_test+0x20>
    2b94:	00300463          	beq	zero,gp,2b9c <bne_test+0x30>
    2b98:	e84fd06f          	j	21c <fail>
    2b9c:	ffffd097          	auipc	ra,0xffffd
    2ba0:	654080e7          	jalr	1620(ra) # 1f0 <update_test>
    2ba4:	00300193          	li	gp,3
    2ba8:	00100093          	li	ra,1
    2bac:	00000113          	li	sp,0
    2bb0:	00209863          	bne	ra,sp,2bc0 <bne_test+0x54>
    2bb4:	00300463          	beq	zero,gp,2bbc <bne_test+0x50>
    2bb8:	e64fd06f          	j	21c <fail>
    2bbc:	00301863          	bne	zero,gp,2bcc <bne_test+0x60>
    2bc0:	fe209ee3          	bne	ra,sp,2bbc <bne_test+0x50>
    2bc4:	00300463          	beq	zero,gp,2bcc <bne_test+0x60>
    2bc8:	e54fd06f          	j	21c <fail>
    2bcc:	ffffd097          	auipc	ra,0xffffd
    2bd0:	624080e7          	jalr	1572(ra) # 1f0 <update_test>
    2bd4:	00400193          	li	gp,4
    2bd8:	fff00093          	li	ra,-1
    2bdc:	00100113          	li	sp,1
    2be0:	00209863          	bne	ra,sp,2bf0 <bne_test+0x84>
    2be4:	00300463          	beq	zero,gp,2bec <bne_test+0x80>
    2be8:	e34fd06f          	j	21c <fail>
    2bec:	00301863          	bne	zero,gp,2bfc <bne_test+0x90>
    2bf0:	fe209ee3          	bne	ra,sp,2bec <bne_test+0x80>
    2bf4:	00300463          	beq	zero,gp,2bfc <bne_test+0x90>
    2bf8:	e24fd06f          	j	21c <fail>
    2bfc:	ffffd097          	auipc	ra,0xffffd
    2c00:	5f4080e7          	jalr	1524(ra) # 1f0 <update_test>
    2c04:	00500193          	li	gp,5
    2c08:	00100093          	li	ra,1
    2c0c:	fff00113          	li	sp,-1
    2c10:	00209863          	bne	ra,sp,2c20 <bne_test+0xb4>
    2c14:	00300463          	beq	zero,gp,2c1c <bne_test+0xb0>
    2c18:	e04fd06f          	j	21c <fail>
    2c1c:	00301863          	bne	zero,gp,2c2c <bne_test+0xc0>
    2c20:	fe209ee3          	bne	ra,sp,2c1c <bne_test+0xb0>
    2c24:	00300463          	beq	zero,gp,2c2c <bne_test+0xc0>
    2c28:	df4fd06f          	j	21c <fail>
    2c2c:	ffffd097          	auipc	ra,0xffffd
    2c30:	5c4080e7          	jalr	1476(ra) # 1f0 <update_test>
    2c34:	00600193          	li	gp,6
    2c38:	00000093          	li	ra,0
    2c3c:	00000113          	li	sp,0
    2c40:	00209463          	bne	ra,sp,2c48 <bne_test+0xdc>
    2c44:	00301663          	bne	zero,gp,2c50 <bne_test+0xe4>
    2c48:	00300463          	beq	zero,gp,2c50 <bne_test+0xe4>
    2c4c:	dd0fd06f          	j	21c <fail>
    2c50:	fe209ce3          	bne	ra,sp,2c48 <bne_test+0xdc>
    2c54:	ffffd097          	auipc	ra,0xffffd
    2c58:	59c080e7          	jalr	1436(ra) # 1f0 <update_test>
    2c5c:	00700193          	li	gp,7
    2c60:	00100093          	li	ra,1
    2c64:	00100113          	li	sp,1
    2c68:	00209463          	bne	ra,sp,2c70 <bne_test+0x104>
    2c6c:	00301663          	bne	zero,gp,2c78 <bne_test+0x10c>
    2c70:	00300463          	beq	zero,gp,2c78 <bne_test+0x10c>
    2c74:	da8fd06f          	j	21c <fail>
    2c78:	fe209ce3          	bne	ra,sp,2c70 <bne_test+0x104>
    2c7c:	ffffd097          	auipc	ra,0xffffd
    2c80:	574080e7          	jalr	1396(ra) # 1f0 <update_test>
    2c84:	00800193          	li	gp,8
    2c88:	fff00093          	li	ra,-1
    2c8c:	fff00113          	li	sp,-1
    2c90:	00209463          	bne	ra,sp,2c98 <bne_test+0x12c>
    2c94:	00301663          	bne	zero,gp,2ca0 <bne_test+0x134>
    2c98:	00300463          	beq	zero,gp,2ca0 <bne_test+0x134>
    2c9c:	d80fd06f          	j	21c <fail>
    2ca0:	fe209ce3          	bne	ra,sp,2c98 <bne_test+0x12c>
    2ca4:	ffffd097          	auipc	ra,0xffffd
    2ca8:	54c080e7          	jalr	1356(ra) # 1f0 <update_test>
    2cac:	000f8067          	jr	t6

00002cb0 <blt_test>:
    2cb0:	00000513          	li	a0,0
    2cb4:	00a62023          	sw	a0,0(a2)
    2cb8:	00200193          	li	gp,2
    2cbc:	00000093          	li	ra,0
    2cc0:	00100113          	li	sp,1
    2cc4:	0020c863          	blt	ra,sp,2cd4 <blt_test+0x24>
    2cc8:	00300463          	beq	zero,gp,2cd0 <blt_test+0x20>
    2ccc:	d50fd06f          	j	21c <fail>
    2cd0:	00301863          	bne	zero,gp,2ce0 <blt_test+0x30>
    2cd4:	fe20cee3          	blt	ra,sp,2cd0 <blt_test+0x20>
    2cd8:	00300463          	beq	zero,gp,2ce0 <blt_test+0x30>
    2cdc:	d40fd06f          	j	21c <fail>
    2ce0:	ffffd097          	auipc	ra,0xffffd
    2ce4:	510080e7          	jalr	1296(ra) # 1f0 <update_test>
    2ce8:	00300193          	li	gp,3
    2cec:	fff00093          	li	ra,-1
    2cf0:	00100113          	li	sp,1
    2cf4:	0020c863          	blt	ra,sp,2d04 <blt_test+0x54>
    2cf8:	00300463          	beq	zero,gp,2d00 <blt_test+0x50>
    2cfc:	d20fd06f          	j	21c <fail>
    2d00:	00301863          	bne	zero,gp,2d10 <blt_test+0x60>
    2d04:	fe20cee3          	blt	ra,sp,2d00 <blt_test+0x50>
    2d08:	00300463          	beq	zero,gp,2d10 <blt_test+0x60>
    2d0c:	d10fd06f          	j	21c <fail>
    2d10:	ffffd097          	auipc	ra,0xffffd
    2d14:	4e0080e7          	jalr	1248(ra) # 1f0 <update_test>
    2d18:	00400193          	li	gp,4
    2d1c:	ffe00093          	li	ra,-2
    2d20:	fff00113          	li	sp,-1
    2d24:	0020c863          	blt	ra,sp,2d34 <blt_test+0x84>
    2d28:	00300463          	beq	zero,gp,2d30 <blt_test+0x80>
    2d2c:	cf0fd06f          	j	21c <fail>
    2d30:	00301863          	bne	zero,gp,2d40 <blt_test+0x90>
    2d34:	fe20cee3          	blt	ra,sp,2d30 <blt_test+0x80>
    2d38:	00300463          	beq	zero,gp,2d40 <blt_test+0x90>
    2d3c:	ce0fd06f          	j	21c <fail>
    2d40:	ffffd097          	auipc	ra,0xffffd
    2d44:	4b0080e7          	jalr	1200(ra) # 1f0 <update_test>
    2d48:	00500193          	li	gp,5
    2d4c:	00100093          	li	ra,1
    2d50:	00000113          	li	sp,0
    2d54:	0020c463          	blt	ra,sp,2d5c <blt_test+0xac>
    2d58:	00301663          	bne	zero,gp,2d64 <blt_test+0xb4>
    2d5c:	00300463          	beq	zero,gp,2d64 <blt_test+0xb4>
    2d60:	cbcfd06f          	j	21c <fail>
    2d64:	fe20cce3          	blt	ra,sp,2d5c <blt_test+0xac>
    2d68:	ffffd097          	auipc	ra,0xffffd
    2d6c:	488080e7          	jalr	1160(ra) # 1f0 <update_test>
    2d70:	00600193          	li	gp,6
    2d74:	00100093          	li	ra,1
    2d78:	fff00113          	li	sp,-1
    2d7c:	0020c463          	blt	ra,sp,2d84 <blt_test+0xd4>
    2d80:	00301663          	bne	zero,gp,2d8c <blt_test+0xdc>
    2d84:	00300463          	beq	zero,gp,2d8c <blt_test+0xdc>
    2d88:	c94fd06f          	j	21c <fail>
    2d8c:	fe20cce3          	blt	ra,sp,2d84 <blt_test+0xd4>
    2d90:	ffffd097          	auipc	ra,0xffffd
    2d94:	460080e7          	jalr	1120(ra) # 1f0 <update_test>
    2d98:	00700193          	li	gp,7
    2d9c:	fff00093          	li	ra,-1
    2da0:	ffe00113          	li	sp,-2
    2da4:	0020c463          	blt	ra,sp,2dac <blt_test+0xfc>
    2da8:	00301663          	bne	zero,gp,2db4 <blt_test+0x104>
    2dac:	00300463          	beq	zero,gp,2db4 <blt_test+0x104>
    2db0:	c6cfd06f          	j	21c <fail>
    2db4:	fe20cce3          	blt	ra,sp,2dac <blt_test+0xfc>
    2db8:	ffffd097          	auipc	ra,0xffffd
    2dbc:	438080e7          	jalr	1080(ra) # 1f0 <update_test>
    2dc0:	00800193          	li	gp,8
    2dc4:	00100093          	li	ra,1
    2dc8:	ffe00113          	li	sp,-2
    2dcc:	0020c463          	blt	ra,sp,2dd4 <blt_test+0x124>
    2dd0:	00301663          	bne	zero,gp,2ddc <blt_test+0x12c>
    2dd4:	00300463          	beq	zero,gp,2ddc <blt_test+0x12c>
    2dd8:	c44fd06f          	j	21c <fail>
    2ddc:	fe20cce3          	blt	ra,sp,2dd4 <blt_test+0x124>
    2de0:	ffffd097          	auipc	ra,0xffffd
    2de4:	410080e7          	jalr	1040(ra) # 1f0 <update_test>
    2de8:	000f8067          	jr	t6

00002dec <bge_test>:
    2dec:	00000513          	li	a0,0
    2df0:	00a62023          	sw	a0,0(a2)
    2df4:	00200193          	li	gp,2
    2df8:	00000093          	li	ra,0
    2dfc:	00000113          	li	sp,0
    2e00:	0020d863          	bge	ra,sp,2e10 <bge_test+0x24>
    2e04:	00300463          	beq	zero,gp,2e0c <bge_test+0x20>
    2e08:	c14fd06f          	j	21c <fail>
    2e0c:	00301863          	bne	zero,gp,2e1c <bge_test+0x30>
    2e10:	fe20dee3          	bge	ra,sp,2e0c <bge_test+0x20>
    2e14:	00300463          	beq	zero,gp,2e1c <bge_test+0x30>
    2e18:	c04fd06f          	j	21c <fail>
    2e1c:	ffffd097          	auipc	ra,0xffffd
    2e20:	3d4080e7          	jalr	980(ra) # 1f0 <update_test>
    2e24:	00300193          	li	gp,3
    2e28:	00100093          	li	ra,1
    2e2c:	00100113          	li	sp,1
    2e30:	0020d863          	bge	ra,sp,2e40 <bge_test+0x54>
    2e34:	00300463          	beq	zero,gp,2e3c <bge_test+0x50>
    2e38:	be4fd06f          	j	21c <fail>
    2e3c:	00301863          	bne	zero,gp,2e4c <bge_test+0x60>
    2e40:	fe20dee3          	bge	ra,sp,2e3c <bge_test+0x50>
    2e44:	00300463          	beq	zero,gp,2e4c <bge_test+0x60>
    2e48:	bd4fd06f          	j	21c <fail>
    2e4c:	ffffd097          	auipc	ra,0xffffd
    2e50:	3a4080e7          	jalr	932(ra) # 1f0 <update_test>
    2e54:	00400193          	li	gp,4
    2e58:	fff00093          	li	ra,-1
    2e5c:	fff00113          	li	sp,-1
    2e60:	0020d863          	bge	ra,sp,2e70 <bge_test+0x84>
    2e64:	00300463          	beq	zero,gp,2e6c <bge_test+0x80>
    2e68:	bb4fd06f          	j	21c <fail>
    2e6c:	00301863          	bne	zero,gp,2e7c <bge_test+0x90>
    2e70:	fe20dee3          	bge	ra,sp,2e6c <bge_test+0x80>
    2e74:	00300463          	beq	zero,gp,2e7c <bge_test+0x90>
    2e78:	ba4fd06f          	j	21c <fail>
    2e7c:	ffffd097          	auipc	ra,0xffffd
    2e80:	374080e7          	jalr	884(ra) # 1f0 <update_test>
    2e84:	00500193          	li	gp,5
    2e88:	00100093          	li	ra,1
    2e8c:	00000113          	li	sp,0
    2e90:	0020d863          	bge	ra,sp,2ea0 <bge_test+0xb4>
    2e94:	00300463          	beq	zero,gp,2e9c <bge_test+0xb0>
    2e98:	b84fd06f          	j	21c <fail>
    2e9c:	00301863          	bne	zero,gp,2eac <bge_test+0xc0>
    2ea0:	fe20dee3          	bge	ra,sp,2e9c <bge_test+0xb0>
    2ea4:	00300463          	beq	zero,gp,2eac <bge_test+0xc0>
    2ea8:	b74fd06f          	j	21c <fail>
    2eac:	ffffd097          	auipc	ra,0xffffd
    2eb0:	344080e7          	jalr	836(ra) # 1f0 <update_test>
    2eb4:	00600193          	li	gp,6
    2eb8:	00100093          	li	ra,1
    2ebc:	fff00113          	li	sp,-1
    2ec0:	0020d863          	bge	ra,sp,2ed0 <bge_test+0xe4>
    2ec4:	00300463          	beq	zero,gp,2ecc <bge_test+0xe0>
    2ec8:	b54fd06f          	j	21c <fail>
    2ecc:	00301863          	bne	zero,gp,2edc <bge_test+0xf0>
    2ed0:	fe20dee3          	bge	ra,sp,2ecc <bge_test+0xe0>
    2ed4:	00300463          	beq	zero,gp,2edc <bge_test+0xf0>
    2ed8:	b44fd06f          	j	21c <fail>
    2edc:	ffffd097          	auipc	ra,0xffffd
    2ee0:	314080e7          	jalr	788(ra) # 1f0 <update_test>
    2ee4:	00700193          	li	gp,7
    2ee8:	fff00093          	li	ra,-1
    2eec:	ffe00113          	li	sp,-2
    2ef0:	0020d863          	bge	ra,sp,2f00 <bge_test+0x114>
    2ef4:	00300463          	beq	zero,gp,2efc <bge_test+0x110>
    2ef8:	b24fd06f          	j	21c <fail>
    2efc:	00301863          	bne	zero,gp,2f0c <bge_test+0x120>
    2f00:	fe20dee3          	bge	ra,sp,2efc <bge_test+0x110>
    2f04:	00300463          	beq	zero,gp,2f0c <bge_test+0x120>
    2f08:	b14fd06f          	j	21c <fail>
    2f0c:	ffffd097          	auipc	ra,0xffffd
    2f10:	2e4080e7          	jalr	740(ra) # 1f0 <update_test>
    2f14:	00800193          	li	gp,8
    2f18:	00000093          	li	ra,0
    2f1c:	00100113          	li	sp,1
    2f20:	0020d463          	bge	ra,sp,2f28 <bge_test+0x13c>
    2f24:	00301663          	bne	zero,gp,2f30 <bge_test+0x144>
    2f28:	00300463          	beq	zero,gp,2f30 <bge_test+0x144>
    2f2c:	af0fd06f          	j	21c <fail>
    2f30:	fe20dce3          	bge	ra,sp,2f28 <bge_test+0x13c>
    2f34:	ffffd097          	auipc	ra,0xffffd
    2f38:	2bc080e7          	jalr	700(ra) # 1f0 <update_test>
    2f3c:	00900193          	li	gp,9
    2f40:	fff00093          	li	ra,-1
    2f44:	00100113          	li	sp,1
    2f48:	0020d463          	bge	ra,sp,2f50 <bge_test+0x164>
    2f4c:	00301663          	bne	zero,gp,2f58 <bge_test+0x16c>
    2f50:	00300463          	beq	zero,gp,2f58 <bge_test+0x16c>
    2f54:	ac8fd06f          	j	21c <fail>
    2f58:	fe20dce3          	bge	ra,sp,2f50 <bge_test+0x164>
    2f5c:	ffffd097          	auipc	ra,0xffffd
    2f60:	294080e7          	jalr	660(ra) # 1f0 <update_test>
    2f64:	00a00193          	li	gp,10
    2f68:	ffe00093          	li	ra,-2
    2f6c:	fff00113          	li	sp,-1
    2f70:	0020d463          	bge	ra,sp,2f78 <bge_test+0x18c>
    2f74:	00301663          	bne	zero,gp,2f80 <bge_test+0x194>
    2f78:	00300463          	beq	zero,gp,2f80 <bge_test+0x194>
    2f7c:	aa0fd06f          	j	21c <fail>
    2f80:	fe20dce3          	bge	ra,sp,2f78 <bge_test+0x18c>
    2f84:	ffffd097          	auipc	ra,0xffffd
    2f88:	26c080e7          	jalr	620(ra) # 1f0 <update_test>
    2f8c:	00b00193          	li	gp,11
    2f90:	ffe00093          	li	ra,-2
    2f94:	00100113          	li	sp,1
    2f98:	0020d463          	bge	ra,sp,2fa0 <bge_test+0x1b4>
    2f9c:	00301663          	bne	zero,gp,2fa8 <bge_test+0x1bc>
    2fa0:	00300463          	beq	zero,gp,2fa8 <bge_test+0x1bc>
    2fa4:	a78fd06f          	j	21c <fail>
    2fa8:	fe20dce3          	bge	ra,sp,2fa0 <bge_test+0x1b4>
    2fac:	ffffd097          	auipc	ra,0xffffd
    2fb0:	244080e7          	jalr	580(ra) # 1f0 <update_test>
    2fb4:	000f8067          	jr	t6

00002fb8 <bltu_test>:
    2fb8:	00000513          	li	a0,0
    2fbc:	00a62023          	sw	a0,0(a2)
    2fc0:	00200193          	li	gp,2
    2fc4:	00000093          	li	ra,0
    2fc8:	00100113          	li	sp,1
    2fcc:	0020e863          	bltu	ra,sp,2fdc <bltu_test+0x24>
    2fd0:	00300463          	beq	zero,gp,2fd8 <bltu_test+0x20>
    2fd4:	a48fd06f          	j	21c <fail>
    2fd8:	00301863          	bne	zero,gp,2fe8 <bltu_test+0x30>
    2fdc:	fe20eee3          	bltu	ra,sp,2fd8 <bltu_test+0x20>
    2fe0:	00300463          	beq	zero,gp,2fe8 <bltu_test+0x30>
    2fe4:	a38fd06f          	j	21c <fail>
    2fe8:	ffffd097          	auipc	ra,0xffffd
    2fec:	208080e7          	jalr	520(ra) # 1f0 <update_test>
    2ff0:	00300193          	li	gp,3
    2ff4:	ffe00093          	li	ra,-2
    2ff8:	fff00113          	li	sp,-1
    2ffc:	0020e863          	bltu	ra,sp,300c <bltu_test+0x54>
    3000:	00300463          	beq	zero,gp,3008 <bltu_test+0x50>
    3004:	a18fd06f          	j	21c <fail>
    3008:	00301863          	bne	zero,gp,3018 <bltu_test+0x60>
    300c:	fe20eee3          	bltu	ra,sp,3008 <bltu_test+0x50>
    3010:	00300463          	beq	zero,gp,3018 <bltu_test+0x60>
    3014:	a08fd06f          	j	21c <fail>
    3018:	ffffd097          	auipc	ra,0xffffd
    301c:	1d8080e7          	jalr	472(ra) # 1f0 <update_test>
    3020:	00400193          	li	gp,4
    3024:	00000093          	li	ra,0
    3028:	fff00113          	li	sp,-1
    302c:	0020e863          	bltu	ra,sp,303c <bltu_test+0x84>
    3030:	00300463          	beq	zero,gp,3038 <bltu_test+0x80>
    3034:	9e8fd06f          	j	21c <fail>
    3038:	00301863          	bne	zero,gp,3048 <bltu_test+0x90>
    303c:	fe20eee3          	bltu	ra,sp,3038 <bltu_test+0x80>
    3040:	00300463          	beq	zero,gp,3048 <bltu_test+0x90>
    3044:	9d8fd06f          	j	21c <fail>
    3048:	ffffd097          	auipc	ra,0xffffd
    304c:	1a8080e7          	jalr	424(ra) # 1f0 <update_test>
    3050:	00500193          	li	gp,5
    3054:	00100093          	li	ra,1
    3058:	00000113          	li	sp,0
    305c:	0020e463          	bltu	ra,sp,3064 <bltu_test+0xac>
    3060:	00301663          	bne	zero,gp,306c <bltu_test+0xb4>
    3064:	00300463          	beq	zero,gp,306c <bltu_test+0xb4>
    3068:	9b4fd06f          	j	21c <fail>
    306c:	fe20ece3          	bltu	ra,sp,3064 <bltu_test+0xac>
    3070:	ffffd097          	auipc	ra,0xffffd
    3074:	180080e7          	jalr	384(ra) # 1f0 <update_test>
    3078:	00600193          	li	gp,6
    307c:	fff00093          	li	ra,-1
    3080:	ffe00113          	li	sp,-2
    3084:	0020e463          	bltu	ra,sp,308c <bltu_test+0xd4>
    3088:	00301663          	bne	zero,gp,3094 <bltu_test+0xdc>
    308c:	00300463          	beq	zero,gp,3094 <bltu_test+0xdc>
    3090:	98cfd06f          	j	21c <fail>
    3094:	fe20ece3          	bltu	ra,sp,308c <bltu_test+0xd4>
    3098:	ffffd097          	auipc	ra,0xffffd
    309c:	158080e7          	jalr	344(ra) # 1f0 <update_test>
    30a0:	00700193          	li	gp,7
    30a4:	fff00093          	li	ra,-1
    30a8:	00000113          	li	sp,0
    30ac:	0020e463          	bltu	ra,sp,30b4 <bltu_test+0xfc>
    30b0:	00301663          	bne	zero,gp,30bc <bltu_test+0x104>
    30b4:	00300463          	beq	zero,gp,30bc <bltu_test+0x104>
    30b8:	964fd06f          	j	21c <fail>
    30bc:	fe20ece3          	bltu	ra,sp,30b4 <bltu_test+0xfc>
    30c0:	ffffd097          	auipc	ra,0xffffd
    30c4:	130080e7          	jalr	304(ra) # 1f0 <update_test>
    30c8:	00800193          	li	gp,8
    30cc:	800000b7          	lui	ra,0x80000
    30d0:	80000137          	lui	sp,0x80000
    30d4:	fff10113          	addi	sp,sp,-1 # 7fffffff <SSEG+0x6ef3ffff>
    30d8:	0020e463          	bltu	ra,sp,30e0 <bltu_test+0x128>
    30dc:	00301663          	bne	zero,gp,30e8 <bltu_test+0x130>
    30e0:	00300463          	beq	zero,gp,30e8 <bltu_test+0x130>
    30e4:	938fd06f          	j	21c <fail>
    30e8:	fe20ece3          	bltu	ra,sp,30e0 <bltu_test+0x128>
    30ec:	ffffd097          	auipc	ra,0xffffd
    30f0:	104080e7          	jalr	260(ra) # 1f0 <update_test>
    30f4:	000f8067          	jr	t6

000030f8 <bgeu_test>:
    30f8:	00000513          	li	a0,0
    30fc:	00a62023          	sw	a0,0(a2)
    3100:	00200193          	li	gp,2
    3104:	00000093          	li	ra,0
    3108:	00000113          	li	sp,0
    310c:	0020f863          	bgeu	ra,sp,311c <bgeu_test+0x24>
    3110:	00300463          	beq	zero,gp,3118 <bgeu_test+0x20>
    3114:	908fd06f          	j	21c <fail>
    3118:	00301863          	bne	zero,gp,3128 <bgeu_test+0x30>
    311c:	fe20fee3          	bgeu	ra,sp,3118 <bgeu_test+0x20>
    3120:	00300463          	beq	zero,gp,3128 <bgeu_test+0x30>
    3124:	8f8fd06f          	j	21c <fail>
    3128:	ffffd097          	auipc	ra,0xffffd
    312c:	0c8080e7          	jalr	200(ra) # 1f0 <update_test>
    3130:	00300193          	li	gp,3
    3134:	00100093          	li	ra,1
    3138:	00100113          	li	sp,1
    313c:	0020f863          	bgeu	ra,sp,314c <bgeu_test+0x54>
    3140:	00300463          	beq	zero,gp,3148 <bgeu_test+0x50>
    3144:	8d8fd06f          	j	21c <fail>
    3148:	00301863          	bne	zero,gp,3158 <bgeu_test+0x60>
    314c:	fe20fee3          	bgeu	ra,sp,3148 <bgeu_test+0x50>
    3150:	00300463          	beq	zero,gp,3158 <bgeu_test+0x60>
    3154:	8c8fd06f          	j	21c <fail>
    3158:	ffffd097          	auipc	ra,0xffffd
    315c:	098080e7          	jalr	152(ra) # 1f0 <update_test>
    3160:	00400193          	li	gp,4
    3164:	fff00093          	li	ra,-1
    3168:	fff00113          	li	sp,-1
    316c:	0020f863          	bgeu	ra,sp,317c <bgeu_test+0x84>
    3170:	00300463          	beq	zero,gp,3178 <bgeu_test+0x80>
    3174:	8a8fd06f          	j	21c <fail>
    3178:	00301863          	bne	zero,gp,3188 <bgeu_test+0x90>
    317c:	fe20fee3          	bgeu	ra,sp,3178 <bgeu_test+0x80>
    3180:	00300463          	beq	zero,gp,3188 <bgeu_test+0x90>
    3184:	898fd06f          	j	21c <fail>
    3188:	ffffd097          	auipc	ra,0xffffd
    318c:	068080e7          	jalr	104(ra) # 1f0 <update_test>
    3190:	00500193          	li	gp,5
    3194:	00100093          	li	ra,1
    3198:	00000113          	li	sp,0
    319c:	0020f863          	bgeu	ra,sp,31ac <bgeu_test+0xb4>
    31a0:	00300463          	beq	zero,gp,31a8 <bgeu_test+0xb0>
    31a4:	878fd06f          	j	21c <fail>
    31a8:	00301863          	bne	zero,gp,31b8 <bgeu_test+0xc0>
    31ac:	fe20fee3          	bgeu	ra,sp,31a8 <bgeu_test+0xb0>
    31b0:	00300463          	beq	zero,gp,31b8 <bgeu_test+0xc0>
    31b4:	868fd06f          	j	21c <fail>
    31b8:	ffffd097          	auipc	ra,0xffffd
    31bc:	038080e7          	jalr	56(ra) # 1f0 <update_test>
    31c0:	00600193          	li	gp,6
    31c4:	fff00093          	li	ra,-1
    31c8:	ffe00113          	li	sp,-2
    31cc:	0020f863          	bgeu	ra,sp,31dc <bgeu_test+0xe4>
    31d0:	00300463          	beq	zero,gp,31d8 <bgeu_test+0xe0>
    31d4:	848fd06f          	j	21c <fail>
    31d8:	00301863          	bne	zero,gp,31e8 <bgeu_test+0xf0>
    31dc:	fe20fee3          	bgeu	ra,sp,31d8 <bgeu_test+0xe0>
    31e0:	00300463          	beq	zero,gp,31e8 <bgeu_test+0xf0>
    31e4:	838fd06f          	j	21c <fail>
    31e8:	ffffd097          	auipc	ra,0xffffd
    31ec:	008080e7          	jalr	8(ra) # 1f0 <update_test>
    31f0:	00700193          	li	gp,7
    31f4:	fff00093          	li	ra,-1
    31f8:	00000113          	li	sp,0
    31fc:	0020f863          	bgeu	ra,sp,320c <bgeu_test+0x114>
    3200:	00300463          	beq	zero,gp,3208 <bgeu_test+0x110>
    3204:	818fd06f          	j	21c <fail>
    3208:	00301863          	bne	zero,gp,3218 <bgeu_test+0x120>
    320c:	fe20fee3          	bgeu	ra,sp,3208 <bgeu_test+0x110>
    3210:	00300463          	beq	zero,gp,3218 <bgeu_test+0x120>
    3214:	808fd06f          	j	21c <fail>
    3218:	ffffd097          	auipc	ra,0xffffd
    321c:	fd8080e7          	jalr	-40(ra) # 1f0 <update_test>
    3220:	00800193          	li	gp,8
    3224:	00000093          	li	ra,0
    3228:	00100113          	li	sp,1
    322c:	0020f463          	bgeu	ra,sp,3234 <bgeu_test+0x13c>
    3230:	00301663          	bne	zero,gp,323c <bgeu_test+0x144>
    3234:	00300463          	beq	zero,gp,323c <bgeu_test+0x144>
    3238:	fe5fc06f          	j	21c <fail>
    323c:	fe20fce3          	bgeu	ra,sp,3234 <bgeu_test+0x13c>
    3240:	ffffd097          	auipc	ra,0xffffd
    3244:	fb0080e7          	jalr	-80(ra) # 1f0 <update_test>
    3248:	00900193          	li	gp,9
    324c:	ffe00093          	li	ra,-2
    3250:	fff00113          	li	sp,-1
    3254:	0020f463          	bgeu	ra,sp,325c <bgeu_test+0x164>
    3258:	00301663          	bne	zero,gp,3264 <bgeu_test+0x16c>
    325c:	00300463          	beq	zero,gp,3264 <bgeu_test+0x16c>
    3260:	fbdfc06f          	j	21c <fail>
    3264:	fe20fce3          	bgeu	ra,sp,325c <bgeu_test+0x164>
    3268:	ffffd097          	auipc	ra,0xffffd
    326c:	f88080e7          	jalr	-120(ra) # 1f0 <update_test>
    3270:	00a00193          	li	gp,10
    3274:	00000093          	li	ra,0
    3278:	fff00113          	li	sp,-1
    327c:	0020f463          	bgeu	ra,sp,3284 <bgeu_test+0x18c>
    3280:	00301663          	bne	zero,gp,328c <bgeu_test+0x194>
    3284:	00300463          	beq	zero,gp,328c <bgeu_test+0x194>
    3288:	f95fc06f          	j	21c <fail>
    328c:	fe20fce3          	bgeu	ra,sp,3284 <bgeu_test+0x18c>
    3290:	ffffd097          	auipc	ra,0xffffd
    3294:	f60080e7          	jalr	-160(ra) # 1f0 <update_test>
    3298:	00b00193          	li	gp,11
    329c:	800000b7          	lui	ra,0x80000
    32a0:	fff08093          	addi	ra,ra,-1 # 7fffffff <SSEG+0x6ef3ffff>
    32a4:	80000137          	lui	sp,0x80000
    32a8:	0020f463          	bgeu	ra,sp,32b0 <bgeu_test+0x1b8>
    32ac:	00301663          	bne	zero,gp,32b8 <bgeu_test+0x1c0>
    32b0:	00300463          	beq	zero,gp,32b8 <bgeu_test+0x1c0>
    32b4:	f69fc06f          	j	21c <fail>
    32b8:	fe20fce3          	bgeu	ra,sp,32b0 <bgeu_test+0x1b8>
    32bc:	ffffd097          	auipc	ra,0xffffd
    32c0:	f34080e7          	jalr	-204(ra) # 1f0 <update_test>
    32c4:	000f8067          	jr	t6

000032c8 <auipc_test>:
    32c8:	00000513          	li	a0,0
    32cc:	00a62023          	sw	a0,0(a2)
    32d0:	00002e17          	auipc	t3,0x2
    32d4:	71ce0e13          	addi	t3,t3,1820 # 59ec <__global_pointer$+0x12a8>
    32d8:	00400def          	jal	s11,32dc <auipc_test+0x14>
    32dc:	41be0e33          	sub	t3,t3,s11
    32e0:	00002eb7          	lui	t4,0x2
    32e4:	710e8e93          	addi	t4,t4,1808 # 2710 <lw_test+0x3c>
    32e8:	00200193          	li	gp,2
    32ec:	01de0463          	beq	t3,t4,32f4 <auipc_test+0x2c>
    32f0:	f2dfc06f          	j	21c <fail>
    32f4:	ffffd097          	auipc	ra,0xffffd
    32f8:	efc080e7          	jalr	-260(ra) # 1f0 <update_test>
    32fc:	00000013          	nop
    3300:	ffffee17          	auipc	t3,0xffffe
    3304:	8fce0e13          	addi	t3,t3,-1796 # bfc <sll_test+0x17c>
    3308:	00400def          	jal	s11,330c <auipc_test+0x44>
    330c:	41be0e33          	sub	t3,t3,s11
    3310:	ffffeeb7          	lui	t4,0xffffe
    3314:	8f0e8e93          	addi	t4,t4,-1808 # ffffd8f0 <SSEG+0xeef3d8f0>
    3318:	00300193          	li	gp,3
    331c:	01de0463          	beq	t3,t4,3324 <auipc_test+0x5c>
    3320:	efdfc06f          	j	21c <fail>
    3324:	ffffd097          	auipc	ra,0xffffd
    3328:	ecc080e7          	jalr	-308(ra) # 1f0 <update_test>
    332c:	000f8067          	jr	t6

00003330 <lui_test>:
    3330:	00000513          	li	a0,0
    3334:	00a62023          	sw	a0,0(a2)
    3338:	000000b7          	lui	ra,0x0
    333c:	00000e93          	li	t4,0
    3340:	00200193          	li	gp,2
    3344:	01d08463          	beq	ra,t4,334c <lui_test+0x1c>
    3348:	ed5fc06f          	j	21c <fail>
    334c:	ffffd097          	auipc	ra,0xffffd
    3350:	ea4080e7          	jalr	-348(ra) # 1f0 <update_test>
    3354:	fffff0b7          	lui	ra,0xfffff
    3358:	4010d093          	srai	ra,ra,0x1
    335c:	80000e93          	li	t4,-2048
    3360:	00300193          	li	gp,3
    3364:	01d08463          	beq	ra,t4,336c <lui_test+0x3c>
    3368:	eb5fc06f          	j	21c <fail>
    336c:	ffffd097          	auipc	ra,0xffffd
    3370:	e84080e7          	jalr	-380(ra) # 1f0 <update_test>
    3374:	7ffff0b7          	lui	ra,0x7ffff
    3378:	4140d093          	srai	ra,ra,0x14
    337c:	7ff00e93          	li	t4,2047
    3380:	00400193          	li	gp,4
    3384:	01d08463          	beq	ra,t4,338c <lui_test+0x5c>
    3388:	e95fc06f          	j	21c <fail>
    338c:	ffffd097          	auipc	ra,0xffffd
    3390:	e64080e7          	jalr	-412(ra) # 1f0 <update_test>
    3394:	800000b7          	lui	ra,0x80000
    3398:	4140d093          	srai	ra,ra,0x14
    339c:	80000e93          	li	t4,-2048
    33a0:	00500193          	li	gp,5
    33a4:	01d08463          	beq	ra,t4,33ac <lui_test+0x7c>
    33a8:	e75fc06f          	j	21c <fail>
    33ac:	ffffd097          	auipc	ra,0xffffd
    33b0:	e44080e7          	jalr	-444(ra) # 1f0 <update_test>
    33b4:	80000037          	lui	zero,0x80000
    33b8:	00000e93          	li	t4,0
    33bc:	00600193          	li	gp,6
    33c0:	01d00463          	beq	zero,t4,33c8 <lui_test+0x98>
    33c4:	e59fc06f          	j	21c <fail>
    33c8:	ffffd097          	auipc	ra,0xffffd
    33cc:	e28080e7          	jalr	-472(ra) # 1f0 <update_test>
    33d0:	000f8067          	jr	t6

000033d4 <jal_test>:
    33d4:	00000513          	li	a0,0
    33d8:	00a62023          	sw	a0,0(a2)
    33dc:	00200193          	li	gp,2
    33e0:	00000093          	li	ra,0
    33e4:	0100026f          	jal	tp,33f4 <target_2>

000033e8 <linkaddr_2>:
    33e8:	00000013          	nop
    33ec:	00000013          	nop
    33f0:	e2dfc06f          	j	21c <fail>

000033f4 <target_2>:
    33f4:	00000117          	auipc	sp,0x0
    33f8:	ff410113          	addi	sp,sp,-12 # 33e8 <linkaddr_2>
    33fc:	00410463          	beq	sp,tp,3404 <target_2+0x10>
    3400:	e1dfc06f          	j	21c <fail>
    3404:	ffffd097          	auipc	ra,0xffffd
    3408:	dec080e7          	jalr	-532(ra) # 1f0 <update_test>
    340c:	00100093          	li	ra,1
    3410:	0140006f          	j	3424 <target_2+0x30>
    3414:	00108093          	addi	ra,ra,1
    3418:	00108093          	addi	ra,ra,1
    341c:	00108093          	addi	ra,ra,1
    3420:	00108093          	addi	ra,ra,1
    3424:	00108093          	addi	ra,ra,1
    3428:	00108093          	addi	ra,ra,1
    342c:	00300e93          	li	t4,3
    3430:	00300193          	li	gp,3
    3434:	01d08463          	beq	ra,t4,343c <target_2+0x48>
    3438:	de5fc06f          	j	21c <fail>
    343c:	ffffd097          	auipc	ra,0xffffd
    3440:	db4080e7          	jalr	-588(ra) # 1f0 <update_test>
    3444:	000f8067          	jr	t6

00003448 <jalr_test>:
    3448:	00000513          	li	a0,0
    344c:	00a62023          	sw	a0,0(a2)

00003450 <test_2a>:
    3450:	00200193          	li	gp,2
    3454:	00000293          	li	t0,0
    3458:	00000317          	auipc	t1,0x0
    345c:	01030313          	addi	t1,t1,16 # 3468 <target_2a>
    3460:	000302e7          	jalr	t0,t1

00003464 <linkaddr_2a>:
    3464:	db9fc06f          	j	21c <fail>

00003468 <target_2a>:
    3468:	00000317          	auipc	t1,0x0
    346c:	ffc30313          	addi	t1,t1,-4 # 3464 <linkaddr_2a>
    3470:	00628463          	beq	t0,t1,3478 <target_2a+0x10>
    3474:	da9fc06f          	j	21c <fail>
    3478:	ffffd097          	auipc	ra,0xffffd
    347c:	d78080e7          	jalr	-648(ra) # 1f0 <update_test>
    3480:	00400193          	li	gp,4
    3484:	00000213          	li	tp,0
    3488:	00000317          	auipc	t1,0x0
    348c:	01430313          	addi	t1,t1,20 # 349c <target_2a+0x34>
    3490:	000309e7          	jalr	s3,t1
    3494:	00300463          	beq	zero,gp,349c <target_2a+0x34>
    3498:	d85fc06f          	j	21c <fail>
    349c:	00120213          	addi	tp,tp,1 # 1 <main+0x1>
    34a0:	00200293          	li	t0,2
    34a4:	fe5212e3          	bne	tp,t0,3488 <target_2a+0x20>
    34a8:	ffffd097          	auipc	ra,0xffffd
    34ac:	d48080e7          	jalr	-696(ra) # 1f0 <update_test>
    34b0:	00500193          	li	gp,5
    34b4:	00000213          	li	tp,0
    34b8:	00000317          	auipc	t1,0x0
    34bc:	01830313          	addi	t1,t1,24 # 34d0 <target_2a+0x68>
    34c0:	00000013          	nop
    34c4:	000309e7          	jalr	s3,t1
    34c8:	00300463          	beq	zero,gp,34d0 <target_2a+0x68>
    34cc:	d51fc06f          	j	21c <fail>
    34d0:	00120213          	addi	tp,tp,1 # 1 <main+0x1>
    34d4:	00200293          	li	t0,2
    34d8:	fe5210e3          	bne	tp,t0,34b8 <target_2a+0x50>
    34dc:	ffffd097          	auipc	ra,0xffffd
    34e0:	d14080e7          	jalr	-748(ra) # 1f0 <update_test>
    34e4:	00600193          	li	gp,6
    34e8:	00000213          	li	tp,0
    34ec:	00000317          	auipc	t1,0x0
    34f0:	01c30313          	addi	t1,t1,28 # 3508 <target_2a+0xa0>
    34f4:	00000013          	nop
    34f8:	00000013          	nop
    34fc:	000309e7          	jalr	s3,t1
    3500:	00300463          	beq	zero,gp,3508 <target_2a+0xa0>
    3504:	d19fc06f          	j	21c <fail>
    3508:	00120213          	addi	tp,tp,1 # 1 <main+0x1>
    350c:	00200293          	li	t0,2
    3510:	fc521ee3          	bne	tp,t0,34ec <target_2a+0x84>
    3514:	ffffd097          	auipc	ra,0xffffd
    3518:	cdc080e7          	jalr	-804(ra) # 1f0 <update_test>
    351c:	000f8067          	jr	t6

00003520 <lh_test>:
    3520:	00000513          	li	a0,0
    3524:	00a62023          	sw	a0,0(a2)
    3528:	00001097          	auipc	ra,0x1
    352c:	a5c08093          	addi	ra,ra,-1444 # 3f84 <tdat1lh>
    3530:	00009f03          	lh	t5,0(ra)
    3534:	0ff00e93          	li	t4,255
    3538:	00200193          	li	gp,2
    353c:	01df0463          	beq	t5,t4,3544 <lh_test+0x24>
    3540:	cddfc06f          	j	21c <fail>
    3544:	ffffd097          	auipc	ra,0xffffd
    3548:	cac080e7          	jalr	-852(ra) # 1f0 <update_test>
    354c:	00001097          	auipc	ra,0x1
    3550:	a3808093          	addi	ra,ra,-1480 # 3f84 <tdat1lh>
    3554:	00209f03          	lh	t5,2(ra)
    3558:	f0000e93          	li	t4,-256
    355c:	00300193          	li	gp,3
    3560:	01df0463          	beq	t5,t4,3568 <lh_test+0x48>
    3564:	cb9fc06f          	j	21c <fail>
    3568:	ffffd097          	auipc	ra,0xffffd
    356c:	c88080e7          	jalr	-888(ra) # 1f0 <update_test>
    3570:	00001097          	auipc	ra,0x1
    3574:	a1408093          	addi	ra,ra,-1516 # 3f84 <tdat1lh>
    3578:	00409f03          	lh	t5,4(ra)
    357c:	00001eb7          	lui	t4,0x1
    3580:	ff0e8e93          	addi	t4,t4,-16 # ff0 <sra_test+0x58>
    3584:	00400193          	li	gp,4
    3588:	01df0463          	beq	t5,t4,3590 <lh_test+0x70>
    358c:	c91fc06f          	j	21c <fail>
    3590:	ffffd097          	auipc	ra,0xffffd
    3594:	c60080e7          	jalr	-928(ra) # 1f0 <update_test>
    3598:	00001097          	auipc	ra,0x1
    359c:	9ec08093          	addi	ra,ra,-1556 # 3f84 <tdat1lh>
    35a0:	00609f03          	lh	t5,6(ra)
    35a4:	fffffeb7          	lui	t4,0xfffff
    35a8:	00fe8e93          	addi	t4,t4,15 # fffff00f <SSEG+0xeef3f00f>
    35ac:	00500193          	li	gp,5
    35b0:	01df0463          	beq	t5,t4,35b8 <lh_test+0x98>
    35b4:	c69fc06f          	j	21c <fail>
    35b8:	ffffd097          	auipc	ra,0xffffd
    35bc:	c38080e7          	jalr	-968(ra) # 1f0 <update_test>
    35c0:	00001097          	auipc	ra,0x1
    35c4:	9ca08093          	addi	ra,ra,-1590 # 3f8a <tdat4lh>
    35c8:	ffa09f03          	lh	t5,-6(ra)
    35cc:	0ff00e93          	li	t4,255
    35d0:	00600193          	li	gp,6
    35d4:	01df0463          	beq	t5,t4,35dc <lh_test+0xbc>
    35d8:	c45fc06f          	j	21c <fail>
    35dc:	ffffd097          	auipc	ra,0xffffd
    35e0:	c14080e7          	jalr	-1004(ra) # 1f0 <update_test>
    35e4:	00001097          	auipc	ra,0x1
    35e8:	9a608093          	addi	ra,ra,-1626 # 3f8a <tdat4lh>
    35ec:	ffc09f03          	lh	t5,-4(ra)
    35f0:	f0000e93          	li	t4,-256
    35f4:	00700193          	li	gp,7
    35f8:	01df0463          	beq	t5,t4,3600 <lh_test+0xe0>
    35fc:	c21fc06f          	j	21c <fail>
    3600:	ffffd097          	auipc	ra,0xffffd
    3604:	bf0080e7          	jalr	-1040(ra) # 1f0 <update_test>
    3608:	00001097          	auipc	ra,0x1
    360c:	98208093          	addi	ra,ra,-1662 # 3f8a <tdat4lh>
    3610:	ffe09f03          	lh	t5,-2(ra)
    3614:	00001eb7          	lui	t4,0x1
    3618:	ff0e8e93          	addi	t4,t4,-16 # ff0 <sra_test+0x58>
    361c:	00800193          	li	gp,8
    3620:	01df0463          	beq	t5,t4,3628 <lh_test+0x108>
    3624:	bf9fc06f          	j	21c <fail>
    3628:	ffffd097          	auipc	ra,0xffffd
    362c:	bc8080e7          	jalr	-1080(ra) # 1f0 <update_test>
    3630:	00001097          	auipc	ra,0x1
    3634:	95a08093          	addi	ra,ra,-1702 # 3f8a <tdat4lh>
    3638:	00009f03          	lh	t5,0(ra)
    363c:	fffffeb7          	lui	t4,0xfffff
    3640:	00fe8e93          	addi	t4,t4,15 # fffff00f <SSEG+0xeef3f00f>
    3644:	00900193          	li	gp,9
    3648:	01df0463          	beq	t5,t4,3650 <lh_test+0x130>
    364c:	bd1fc06f          	j	21c <fail>
    3650:	ffffd097          	auipc	ra,0xffffd
    3654:	ba0080e7          	jalr	-1120(ra) # 1f0 <update_test>
    3658:	00001097          	auipc	ra,0x1
    365c:	92c08093          	addi	ra,ra,-1748 # 3f84 <tdat1lh>
    3660:	fe008093          	addi	ra,ra,-32
    3664:	02009283          	lh	t0,32(ra)
    3668:	0ff00e93          	li	t4,255
    366c:	00a00193          	li	gp,10
    3670:	01d28463          	beq	t0,t4,3678 <lh_test+0x158>
    3674:	ba9fc06f          	j	21c <fail>
    3678:	ffffd097          	auipc	ra,0xffffd
    367c:	b78080e7          	jalr	-1160(ra) # 1f0 <update_test>
    3680:	00001097          	auipc	ra,0x1
    3684:	90408093          	addi	ra,ra,-1788 # 3f84 <tdat1lh>
    3688:	ffb08093          	addi	ra,ra,-5
    368c:	00709283          	lh	t0,7(ra)
    3690:	f0000e93          	li	t4,-256
    3694:	00b00193          	li	gp,11
    3698:	01d28463          	beq	t0,t4,36a0 <lh_test+0x180>
    369c:	b81fc06f          	j	21c <fail>
    36a0:	ffffd097          	auipc	ra,0xffffd
    36a4:	b50080e7          	jalr	-1200(ra) # 1f0 <update_test>
    36a8:	000f8067          	jr	t6

000036ac <lb_test>:
    36ac:	00000513          	li	a0,0
    36b0:	00a62023          	sw	a0,0(a2)
    36b4:	00151513          	slli	a0,a0,0x1
    36b8:	00001097          	auipc	ra,0x1
    36bc:	8d408093          	addi	ra,ra,-1836 # 3f8c <tdat1lb>
    36c0:	00008f03          	lb	t5,0(ra)
    36c4:	fff00e93          	li	t4,-1
    36c8:	00200193          	li	gp,2
    36cc:	01df0463          	beq	t5,t4,36d4 <lb_test+0x28>
    36d0:	b4dfc06f          	j	21c <fail>
    36d4:	ffffd097          	auipc	ra,0xffffd
    36d8:	b1c080e7          	jalr	-1252(ra) # 1f0 <update_test>
    36dc:	00001097          	auipc	ra,0x1
    36e0:	8b008093          	addi	ra,ra,-1872 # 3f8c <tdat1lb>
    36e4:	00108f03          	lb	t5,1(ra)
    36e8:	00000e93          	li	t4,0
    36ec:	00300193          	li	gp,3
    36f0:	01df0463          	beq	t5,t4,36f8 <lb_test+0x4c>
    36f4:	b29fc06f          	j	21c <fail>
    36f8:	ffffd097          	auipc	ra,0xffffd
    36fc:	af8080e7          	jalr	-1288(ra) # 1f0 <update_test>
    3700:	00001097          	auipc	ra,0x1
    3704:	88c08093          	addi	ra,ra,-1908 # 3f8c <tdat1lb>
    3708:	00208f03          	lb	t5,2(ra)
    370c:	ff000e93          	li	t4,-16
    3710:	00400193          	li	gp,4
    3714:	01df0463          	beq	t5,t4,371c <lb_test+0x70>
    3718:	b05fc06f          	j	21c <fail>
    371c:	ffffd097          	auipc	ra,0xffffd
    3720:	ad4080e7          	jalr	-1324(ra) # 1f0 <update_test>
    3724:	00001097          	auipc	ra,0x1
    3728:	86808093          	addi	ra,ra,-1944 # 3f8c <tdat1lb>
    372c:	00308f03          	lb	t5,3(ra)
    3730:	00f00e93          	li	t4,15
    3734:	00500193          	li	gp,5
    3738:	01df0463          	beq	t5,t4,3740 <lb_test+0x94>
    373c:	ae1fc06f          	j	21c <fail>
    3740:	ffffd097          	auipc	ra,0xffffd
    3744:	ab0080e7          	jalr	-1360(ra) # 1f0 <update_test>
    3748:	00001097          	auipc	ra,0x1
    374c:	84708093          	addi	ra,ra,-1977 # 3f8f <tdat4lb>
    3750:	ffd08f03          	lb	t5,-3(ra)
    3754:	fff00e93          	li	t4,-1
    3758:	00600193          	li	gp,6
    375c:	01df0463          	beq	t5,t4,3764 <lb_test+0xb8>
    3760:	abdfc06f          	j	21c <fail>
    3764:	ffffd097          	auipc	ra,0xffffd
    3768:	a8c080e7          	jalr	-1396(ra) # 1f0 <update_test>
    376c:	00001097          	auipc	ra,0x1
    3770:	82308093          	addi	ra,ra,-2013 # 3f8f <tdat4lb>
    3774:	ffe08f03          	lb	t5,-2(ra)
    3778:	00000e93          	li	t4,0
    377c:	00700193          	li	gp,7
    3780:	01df0463          	beq	t5,t4,3788 <lb_test+0xdc>
    3784:	a99fc06f          	j	21c <fail>
    3788:	ffffd097          	auipc	ra,0xffffd
    378c:	a68080e7          	jalr	-1432(ra) # 1f0 <update_test>
    3790:	00000097          	auipc	ra,0x0
    3794:	7ff08093          	addi	ra,ra,2047 # 3f8f <tdat4lb>
    3798:	fff08f03          	lb	t5,-1(ra)
    379c:	ff000e93          	li	t4,-16
    37a0:	00800193          	li	gp,8
    37a4:	01df0463          	beq	t5,t4,37ac <lb_test+0x100>
    37a8:	a75fc06f          	j	21c <fail>
    37ac:	ffffd097          	auipc	ra,0xffffd
    37b0:	a44080e7          	jalr	-1468(ra) # 1f0 <update_test>
    37b4:	00000097          	auipc	ra,0x0
    37b8:	7db08093          	addi	ra,ra,2011 # 3f8f <tdat4lb>
    37bc:	00008f03          	lb	t5,0(ra)
    37c0:	00f00e93          	li	t4,15
    37c4:	00900193          	li	gp,9
    37c8:	01df0463          	beq	t5,t4,37d0 <lb_test+0x124>
    37cc:	a51fc06f          	j	21c <fail>
    37d0:	ffffd097          	auipc	ra,0xffffd
    37d4:	a20080e7          	jalr	-1504(ra) # 1f0 <update_test>
    37d8:	00000097          	auipc	ra,0x0
    37dc:	7b408093          	addi	ra,ra,1972 # 3f8c <tdat1lb>
    37e0:	fe008093          	addi	ra,ra,-32
    37e4:	02008283          	lb	t0,32(ra)
    37e8:	fff00e93          	li	t4,-1
    37ec:	00a00193          	li	gp,10
    37f0:	01d28463          	beq	t0,t4,37f8 <lb_test+0x14c>
    37f4:	a29fc06f          	j	21c <fail>
    37f8:	ffffd097          	auipc	ra,0xffffd
    37fc:	9f8080e7          	jalr	-1544(ra) # 1f0 <update_test>
    3800:	00000097          	auipc	ra,0x0
    3804:	78c08093          	addi	ra,ra,1932 # 3f8c <tdat1lb>
    3808:	ffa08093          	addi	ra,ra,-6
    380c:	00708283          	lb	t0,7(ra)
    3810:	00000e93          	li	t4,0
    3814:	00b00193          	li	gp,11
    3818:	01d28463          	beq	t0,t4,3820 <lb_test+0x174>
    381c:	a01fc06f          	j	21c <fail>
    3820:	ffffd097          	auipc	ra,0xffffd
    3824:	9d0080e7          	jalr	-1584(ra) # 1f0 <update_test>
    3828:	000f8067          	jr	t6

0000382c <lbu_test>:
    382c:	00000513          	li	a0,0
    3830:	00a62023          	sw	a0,0(a2)
    3834:	00151513          	slli	a0,a0,0x1
    3838:	00000097          	auipc	ra,0x0
    383c:	75408093          	addi	ra,ra,1876 # 3f8c <tdat1lb>
    3840:	0000cf03          	lbu	t5,0(ra)
    3844:	0ff00e93          	li	t4,255
    3848:	00200193          	li	gp,2
    384c:	01df0463          	beq	t5,t4,3854 <lbu_test+0x28>
    3850:	9cdfc06f          	j	21c <fail>
    3854:	ffffd097          	auipc	ra,0xffffd
    3858:	99c080e7          	jalr	-1636(ra) # 1f0 <update_test>
    385c:	00000097          	auipc	ra,0x0
    3860:	73008093          	addi	ra,ra,1840 # 3f8c <tdat1lb>
    3864:	0010cf03          	lbu	t5,1(ra)
    3868:	00000e93          	li	t4,0
    386c:	00300193          	li	gp,3
    3870:	01df0463          	beq	t5,t4,3878 <lbu_test+0x4c>
    3874:	9a9fc06f          	j	21c <fail>
    3878:	ffffd097          	auipc	ra,0xffffd
    387c:	978080e7          	jalr	-1672(ra) # 1f0 <update_test>
    3880:	00000097          	auipc	ra,0x0
    3884:	70c08093          	addi	ra,ra,1804 # 3f8c <tdat1lb>
    3888:	0020cf03          	lbu	t5,2(ra)
    388c:	0f000e93          	li	t4,240
    3890:	00400193          	li	gp,4
    3894:	01df0463          	beq	t5,t4,389c <lbu_test+0x70>
    3898:	985fc06f          	j	21c <fail>
    389c:	ffffd097          	auipc	ra,0xffffd
    38a0:	954080e7          	jalr	-1708(ra) # 1f0 <update_test>
    38a4:	00000097          	auipc	ra,0x0
    38a8:	6e808093          	addi	ra,ra,1768 # 3f8c <tdat1lb>
    38ac:	0030cf03          	lbu	t5,3(ra)
    38b0:	00f00e93          	li	t4,15
    38b4:	00500193          	li	gp,5
    38b8:	01df0463          	beq	t5,t4,38c0 <lbu_test+0x94>
    38bc:	961fc06f          	j	21c <fail>
    38c0:	ffffd097          	auipc	ra,0xffffd
    38c4:	930080e7          	jalr	-1744(ra) # 1f0 <update_test>
    38c8:	00000097          	auipc	ra,0x0
    38cc:	6c708093          	addi	ra,ra,1735 # 3f8f <tdat4lb>
    38d0:	ffd0cf03          	lbu	t5,-3(ra)
    38d4:	0ff00e93          	li	t4,255
    38d8:	00600193          	li	gp,6
    38dc:	01df0463          	beq	t5,t4,38e4 <lbu_test+0xb8>
    38e0:	93dfc06f          	j	21c <fail>
    38e4:	ffffd097          	auipc	ra,0xffffd
    38e8:	90c080e7          	jalr	-1780(ra) # 1f0 <update_test>
    38ec:	00000097          	auipc	ra,0x0
    38f0:	6a308093          	addi	ra,ra,1699 # 3f8f <tdat4lb>
    38f4:	ffe0cf03          	lbu	t5,-2(ra)
    38f8:	00000e93          	li	t4,0
    38fc:	00700193          	li	gp,7
    3900:	01df0463          	beq	t5,t4,3908 <lbu_test+0xdc>
    3904:	919fc06f          	j	21c <fail>
    3908:	ffffd097          	auipc	ra,0xffffd
    390c:	8e8080e7          	jalr	-1816(ra) # 1f0 <update_test>
    3910:	00000097          	auipc	ra,0x0
    3914:	67f08093          	addi	ra,ra,1663 # 3f8f <tdat4lb>
    3918:	fff0cf03          	lbu	t5,-1(ra)
    391c:	0f000e93          	li	t4,240
    3920:	00800193          	li	gp,8
    3924:	01df0463          	beq	t5,t4,392c <lbu_test+0x100>
    3928:	8f5fc06f          	j	21c <fail>
    392c:	ffffd097          	auipc	ra,0xffffd
    3930:	8c4080e7          	jalr	-1852(ra) # 1f0 <update_test>
    3934:	00000097          	auipc	ra,0x0
    3938:	65b08093          	addi	ra,ra,1627 # 3f8f <tdat4lb>
    393c:	0000cf03          	lbu	t5,0(ra)
    3940:	00f00e93          	li	t4,15
    3944:	00900193          	li	gp,9
    3948:	01df0463          	beq	t5,t4,3950 <lbu_test+0x124>
    394c:	8d1fc06f          	j	21c <fail>
    3950:	ffffd097          	auipc	ra,0xffffd
    3954:	8a0080e7          	jalr	-1888(ra) # 1f0 <update_test>
    3958:	00000097          	auipc	ra,0x0
    395c:	63408093          	addi	ra,ra,1588 # 3f8c <tdat1lb>
    3960:	fe008093          	addi	ra,ra,-32
    3964:	0200c283          	lbu	t0,32(ra)
    3968:	0ff00e93          	li	t4,255
    396c:	00a00193          	li	gp,10
    3970:	01d28463          	beq	t0,t4,3978 <lbu_test+0x14c>
    3974:	8a9fc06f          	j	21c <fail>
    3978:	ffffd097          	auipc	ra,0xffffd
    397c:	878080e7          	jalr	-1928(ra) # 1f0 <update_test>
    3980:	00000097          	auipc	ra,0x0
    3984:	60c08093          	addi	ra,ra,1548 # 3f8c <tdat1lb>
    3988:	ffa08093          	addi	ra,ra,-6
    398c:	0070c283          	lbu	t0,7(ra)
    3990:	00000e93          	li	t4,0
    3994:	00b00193          	li	gp,11
    3998:	01d28463          	beq	t0,t4,39a0 <lbu_test+0x174>
    399c:	881fc06f          	j	21c <fail>
    39a0:	ffffd097          	auipc	ra,0xffffd
    39a4:	850080e7          	jalr	-1968(ra) # 1f0 <update_test>
    39a8:	000f8067          	jr	t6

000039ac <lhu_test>:
    39ac:	00000513          	li	a0,0
    39b0:	00a62023          	sw	a0,0(a2)
    39b4:	00151513          	slli	a0,a0,0x1
    39b8:	00000097          	auipc	ra,0x0
    39bc:	5cc08093          	addi	ra,ra,1484 # 3f84 <tdat1lh>
    39c0:	0000df03          	lhu	t5,0(ra)
    39c4:	0ff00e93          	li	t4,255
    39c8:	00200193          	li	gp,2
    39cc:	01df0463          	beq	t5,t4,39d4 <lhu_test+0x28>
    39d0:	84dfc06f          	j	21c <fail>
    39d4:	ffffd097          	auipc	ra,0xffffd
    39d8:	81c080e7          	jalr	-2020(ra) # 1f0 <update_test>
    39dc:	00000097          	auipc	ra,0x0
    39e0:	5a808093          	addi	ra,ra,1448 # 3f84 <tdat1lh>
    39e4:	0020df03          	lhu	t5,2(ra)
    39e8:	00010eb7          	lui	t4,0x10
    39ec:	f00e8e93          	addi	t4,t4,-256 # ff00 <__global_pointer$+0xb7bc>
    39f0:	00300193          	li	gp,3
    39f4:	01df0463          	beq	t5,t4,39fc <lhu_test+0x50>
    39f8:	825fc06f          	j	21c <fail>
    39fc:	ffffc097          	auipc	ra,0xffffc
    3a00:	7f4080e7          	jalr	2036(ra) # 1f0 <update_test>
    3a04:	00000097          	auipc	ra,0x0
    3a08:	58008093          	addi	ra,ra,1408 # 3f84 <tdat1lh>
    3a0c:	0040df03          	lhu	t5,4(ra)
    3a10:	00001eb7          	lui	t4,0x1
    3a14:	ff0e8e93          	addi	t4,t4,-16 # ff0 <sra_test+0x58>
    3a18:	00400193          	li	gp,4
    3a1c:	01df0463          	beq	t5,t4,3a24 <lhu_test+0x78>
    3a20:	ffcfc06f          	j	21c <fail>
    3a24:	ffffc097          	auipc	ra,0xffffc
    3a28:	7cc080e7          	jalr	1996(ra) # 1f0 <update_test>
    3a2c:	00000097          	auipc	ra,0x0
    3a30:	55808093          	addi	ra,ra,1368 # 3f84 <tdat1lh>
    3a34:	0060df03          	lhu	t5,6(ra)
    3a38:	0000feb7          	lui	t4,0xf
    3a3c:	00fe8e93          	addi	t4,t4,15 # f00f <__global_pointer$+0xa8cb>
    3a40:	00500193          	li	gp,5
    3a44:	01df0463          	beq	t5,t4,3a4c <lhu_test+0xa0>
    3a48:	fd4fc06f          	j	21c <fail>
    3a4c:	ffffc097          	auipc	ra,0xffffc
    3a50:	7a4080e7          	jalr	1956(ra) # 1f0 <update_test>
    3a54:	00000097          	auipc	ra,0x0
    3a58:	53608093          	addi	ra,ra,1334 # 3f8a <tdat4lh>
    3a5c:	ffa0df03          	lhu	t5,-6(ra)
    3a60:	0ff00e93          	li	t4,255
    3a64:	00600193          	li	gp,6
    3a68:	01df0463          	beq	t5,t4,3a70 <lhu_test+0xc4>
    3a6c:	fb0fc06f          	j	21c <fail>
    3a70:	ffffc097          	auipc	ra,0xffffc
    3a74:	780080e7          	jalr	1920(ra) # 1f0 <update_test>
    3a78:	00000097          	auipc	ra,0x0
    3a7c:	51208093          	addi	ra,ra,1298 # 3f8a <tdat4lh>
    3a80:	ffc0df03          	lhu	t5,-4(ra)
    3a84:	00010eb7          	lui	t4,0x10
    3a88:	f00e8e93          	addi	t4,t4,-256 # ff00 <__global_pointer$+0xb7bc>
    3a8c:	00700193          	li	gp,7
    3a90:	01df0463          	beq	t5,t4,3a98 <lhu_test+0xec>
    3a94:	f88fc06f          	j	21c <fail>
    3a98:	ffffc097          	auipc	ra,0xffffc
    3a9c:	758080e7          	jalr	1880(ra) # 1f0 <update_test>
    3aa0:	00000097          	auipc	ra,0x0
    3aa4:	4ea08093          	addi	ra,ra,1258 # 3f8a <tdat4lh>
    3aa8:	ffe0df03          	lhu	t5,-2(ra)
    3aac:	00001eb7          	lui	t4,0x1
    3ab0:	ff0e8e93          	addi	t4,t4,-16 # ff0 <sra_test+0x58>
    3ab4:	00800193          	li	gp,8
    3ab8:	01df0463          	beq	t5,t4,3ac0 <lhu_test+0x114>
    3abc:	f60fc06f          	j	21c <fail>
    3ac0:	ffffc097          	auipc	ra,0xffffc
    3ac4:	730080e7          	jalr	1840(ra) # 1f0 <update_test>
    3ac8:	00000097          	auipc	ra,0x0
    3acc:	4c208093          	addi	ra,ra,1218 # 3f8a <tdat4lh>
    3ad0:	0000df03          	lhu	t5,0(ra)
    3ad4:	0000feb7          	lui	t4,0xf
    3ad8:	00fe8e93          	addi	t4,t4,15 # f00f <__global_pointer$+0xa8cb>
    3adc:	00900193          	li	gp,9
    3ae0:	01df0463          	beq	t5,t4,3ae8 <lhu_test+0x13c>
    3ae4:	f38fc06f          	j	21c <fail>
    3ae8:	ffffc097          	auipc	ra,0xffffc
    3aec:	708080e7          	jalr	1800(ra) # 1f0 <update_test>
    3af0:	00000097          	auipc	ra,0x0
    3af4:	49408093          	addi	ra,ra,1172 # 3f84 <tdat1lh>
    3af8:	fe008093          	addi	ra,ra,-32
    3afc:	0200d283          	lhu	t0,32(ra)
    3b00:	0ff00e93          	li	t4,255
    3b04:	00a00193          	li	gp,10
    3b08:	01d28463          	beq	t0,t4,3b10 <lhu_test+0x164>
    3b0c:	f10fc06f          	j	21c <fail>
    3b10:	ffffc097          	auipc	ra,0xffffc
    3b14:	6e0080e7          	jalr	1760(ra) # 1f0 <update_test>
    3b18:	00000097          	auipc	ra,0x0
    3b1c:	46c08093          	addi	ra,ra,1132 # 3f84 <tdat1lh>
    3b20:	ffb08093          	addi	ra,ra,-5
    3b24:	0070d283          	lhu	t0,7(ra)
    3b28:	00010eb7          	lui	t4,0x10
    3b2c:	f00e8e93          	addi	t4,t4,-256 # ff00 <__global_pointer$+0xb7bc>
    3b30:	00b00193          	li	gp,11
    3b34:	01d28463          	beq	t0,t4,3b3c <lhu_test+0x190>
    3b38:	ee4fc06f          	j	21c <fail>
    3b3c:	ffffc097          	auipc	ra,0xffffc
    3b40:	6b4080e7          	jalr	1716(ra) # 1f0 <update_test>
    3b44:	000f8067          	jr	t6

00003b48 <sh_test>:
    3b48:	00000513          	li	a0,0
    3b4c:	00a62023          	sw	a0,0(a2)
    3b50:	00151513          	slli	a0,a0,0x1
    3b54:	00000097          	auipc	ra,0x0
    3b58:	44608093          	addi	ra,ra,1094 # 3f9a <tdat1sh>
    3b5c:	0aa00113          	li	sp,170
    3b60:	00209023          	sh	sp,0(ra)
    3b64:	00009f03          	lh	t5,0(ra)
    3b68:	0aa00e93          	li	t4,170
    3b6c:	00200193          	li	gp,2
    3b70:	01df0463          	beq	t5,t4,3b78 <sh_test+0x30>
    3b74:	ea8fc06f          	j	21c <fail>
    3b78:	ffffc097          	auipc	ra,0xffffc
    3b7c:	678080e7          	jalr	1656(ra) # 1f0 <update_test>
    3b80:	00000097          	auipc	ra,0x0
    3b84:	41a08093          	addi	ra,ra,1050 # 3f9a <tdat1sh>
    3b88:	ffffb137          	lui	sp,0xffffb
    3b8c:	a0010113          	addi	sp,sp,-1536 # ffffaa00 <SSEG+0xeef3aa00>
    3b90:	00209123          	sh	sp,2(ra)
    3b94:	00209f03          	lh	t5,2(ra)
    3b98:	ffffbeb7          	lui	t4,0xffffb
    3b9c:	a00e8e93          	addi	t4,t4,-1536 # ffffaa00 <SSEG+0xeef3aa00>
    3ba0:	00300193          	li	gp,3
    3ba4:	01df0463          	beq	t5,t4,3bac <sh_test+0x64>
    3ba8:	e74fc06f          	j	21c <fail>
    3bac:	ffffc097          	auipc	ra,0xffffc
    3bb0:	644080e7          	jalr	1604(ra) # 1f0 <update_test>
    3bb4:	00000097          	auipc	ra,0x0
    3bb8:	3e608093          	addi	ra,ra,998 # 3f9a <tdat1sh>
    3bbc:	beef1137          	lui	sp,0xbeef1
    3bc0:	aa010113          	addi	sp,sp,-1376 # beef0aa0 <SSEG+0xade30aa0>
    3bc4:	00209223          	sh	sp,4(ra)
    3bc8:	00409f03          	lh	t5,4(ra)
    3bcc:	00001eb7          	lui	t4,0x1
    3bd0:	aa0e8e93          	addi	t4,t4,-1376 # aa0 <sll_test+0x20>
    3bd4:	00400193          	li	gp,4
    3bd8:	01df0463          	beq	t5,t4,3be0 <sh_test+0x98>
    3bdc:	e40fc06f          	j	21c <fail>
    3be0:	ffffc097          	auipc	ra,0xffffc
    3be4:	610080e7          	jalr	1552(ra) # 1f0 <update_test>
    3be8:	00000097          	auipc	ra,0x0
    3bec:	3b208093          	addi	ra,ra,946 # 3f9a <tdat1sh>
    3bf0:	ffffa137          	lui	sp,0xffffa
